
outdir/zc706/zephyr.elf:     file format elf32-littleriscv


Disassembly of section vector:

80000000 <vinit>:
80000000:	00000297          	auipc	t0,0x0
80000004:	01028293          	addi	t0,t0,16 # 80000010 <__irq_wrapper>
80000008:	30529073          	csrw	mtvec,t0
8000000c:	7410106f          	j	80001f4c <__start>

Disassembly of section exceptions:

80000010 <__irq_wrapper>:
80000010:	fb010113          	addi	sp,sp,-80
80000014:	00112023          	sw	ra,0(sp)
80000018:	00312223          	sw	gp,4(sp)
8000001c:	00412423          	sw	tp,8(sp)
80000020:	00512623          	sw	t0,12(sp)
80000024:	00612823          	sw	t1,16(sp)
80000028:	00712a23          	sw	t2,20(sp)
8000002c:	01c12c23          	sw	t3,24(sp)
80000030:	01d12e23          	sw	t4,28(sp)
80000034:	03e12023          	sw	t5,32(sp)
80000038:	03f12223          	sw	t6,36(sp)
8000003c:	02a12423          	sw	a0,40(sp)
80000040:	02b12623          	sw	a1,44(sp)
80000044:	02c12823          	sw	a2,48(sp)
80000048:	02d12a23          	sw	a3,52(sp)
8000004c:	02e12c23          	sw	a4,56(sp)
80000050:	02f12e23          	sw	a5,60(sp)
80000054:	05012023          	sw	a6,64(sp)
80000058:	05112223          	sw	a7,68(sp)
8000005c:	341022f3          	csrr	t0,mepc
80000060:	04512423          	sw	t0,72(sp)
80000064:	300022f3          	csrr	t0,mstatus
80000068:	04512623          	sw	t0,76(sp)
8000006c:	1e4000ef          	jal	ra,80000250 <__soc_is_irq>
80000070:	00000313          	li	t1,0
80000074:	02051c63          	bnez	a0,800000ac <is_interrupt>
80000078:	04812283          	lw	t0,72(sp)
8000007c:	00428293          	addi	t0,t0,4
80000080:	04512423          	sw	t0,72(sp)
80000084:	342022f3          	csrr	t0,mcause
80000088:	800003b7          	lui	t2,0x80000
8000008c:	fff38393          	addi	t2,t2,-1 # 7fffffff <CONFIG_OFFLOAD_WORKQUEUE_PRIORITY+0x80000000>
80000090:	0072f2b3          	and	t0,t0,t2
80000094:	00b00313          	li	t1,11
80000098:	0a628c63          	beq	t0,t1,80000150 <reschedule>
8000009c:	00010513          	mv	a0,sp
800000a0:	00000097          	auipc	ra,0x0
800000a4:	14008093          	addi	ra,ra,320 # 800001e0 <no_reschedule>
800000a8:	07c0206f          	j	80002124 <_Fault>

800000ac <is_interrupt>:
800000ac:	00010293          	mv	t0,sp
800000b0:	00003397          	auipc	t2,0x3
800000b4:	67838393          	addi	t2,t2,1656 # 80003728 <_kernel>
800000b8:	0043a103          	lw	sp,4(t2)
800000bc:	ff010113          	addi	sp,sp,-16
800000c0:	00512023          	sw	t0,0(sp)

800000c4 <on_irq_stack>:
800000c4:	0003ae03          	lw	t3,0(t2)
800000c8:	001e0e13          	addi	t3,t3,1
800000cc:	01c3a023          	sw	t3,0(t2)
800000d0:	00030863          	beqz	t1,800000e0 <call_irq>
800000d4:	00000097          	auipc	ra,0x0
800000d8:	04808093          	addi	ra,ra,72 # 8000011c <on_thread_stack>
800000dc:	1dc0206f          	j	800022b8 <_irq_do_offload>

800000e0 <call_irq>:
800000e0:	34202573          	csrr	a0,mcause
800000e4:	800002b7          	lui	t0,0x80000
800000e8:	fff28293          	addi	t0,t0,-1 # 7fffffff <CONFIG_OFFLOAD_WORKQUEUE_PRIORITY+0x80000000>
800000ec:	00557533          	and	a0,a0,t0
800000f0:	150000ef          	jal	ra,80000240 <__soc_handle_irq>
800000f4:	00c000ef          	jal	ra,80000100 <call_sw_table>

800000f8 <bypass_sw_table>:
800000f8:	00d010ef          	jal	ra,80001904 <plic_fe310_irq_handler_fast>
800000fc:	0200006f          	j	8000011c <on_thread_stack>

80000100 <call_sw_table>:
80000100:	00000297          	auipc	t0,0x0
80000104:	19028293          	addi	t0,t0,400 # 80000290 <_sw_isr_table>
80000108:	00351513          	slli	a0,a0,0x3
8000010c:	00a282b3          	add	t0,t0,a0
80000110:	0002a503          	lw	a0,0(t0)
80000114:	0042a303          	lw	t1,4(t0)
80000118:	000300e7          	jalr	t1

8000011c <on_thread_stack>:
8000011c:	00003317          	auipc	t1,0x3
80000120:	60c30313          	addi	t1,t1,1548 # 80003728 <_kernel>
80000124:	00032383          	lw	t2,0(t1)
80000128:	fff38393          	addi	t2,t2,-1
8000012c:	00732023          	sw	t2,0(t1)
80000130:	00012283          	lw	t0,0(sp)
80000134:	00028113          	mv	sp,t0
80000138:	00832383          	lw	t2,8(t1)
8000013c:	00a3de03          	lhu	t3,10(t2)
80000140:	08000e93          	li	t4,128
80000144:	09de7e63          	bleu	t4,t3,800001e0 <no_reschedule>
80000148:	01432e03          	lw	t3,20(t1)
8000014c:	087e0a63          	beq	t3,t2,800001e0 <no_reschedule>

80000150 <reschedule>:
80000150:	710020ef          	jal	ra,80002860 <_update_time_slice_before_swap>
80000154:	00003297          	auipc	t0,0x3
80000158:	5d428293          	addi	t0,t0,1492 # 80003728 <_kernel>
8000015c:	0082a303          	lw	t1,8(t0)
80000160:	02832623          	sw	s0,44(t1)
80000164:	02932823          	sw	s1,48(t1)
80000168:	03232a23          	sw	s2,52(t1)
8000016c:	03332c23          	sw	s3,56(t1)
80000170:	03432e23          	sw	s4,60(t1)
80000174:	05532023          	sw	s5,64(t1)
80000178:	05632223          	sw	s6,68(t1)
8000017c:	05732423          	sw	s7,72(t1)
80000180:	05832623          	sw	s8,76(t1)
80000184:	05932823          	sw	s9,80(t1)
80000188:	05a32a23          	sw	s10,84(t1)
8000018c:	05b32c23          	sw	s11,88(t1)
80000190:	02232423          	sw	sp,40(t1)
80000194:	00003397          	auipc	t2,0x3
80000198:	3dc38393          	addi	t2,t2,988 # 80003570 <_k_neg_eagain>
8000019c:	0003ae03          	lw	t3,0(t2)
800001a0:	07c32423          	sw	t3,104(t1)
800001a4:	0142a303          	lw	t1,20(t0)
800001a8:	0062a423          	sw	t1,8(t0)
800001ac:	02832103          	lw	sp,40(t1)
800001b0:	02c32403          	lw	s0,44(t1)
800001b4:	03032483          	lw	s1,48(t1)
800001b8:	03432903          	lw	s2,52(t1)
800001bc:	03832983          	lw	s3,56(t1)
800001c0:	03c32a03          	lw	s4,60(t1)
800001c4:	04032a83          	lw	s5,64(t1)
800001c8:	04432b03          	lw	s6,68(t1)
800001cc:	04832b83          	lw	s7,72(t1)
800001d0:	04c32c03          	lw	s8,76(t1)
800001d4:	05032c83          	lw	s9,80(t1)
800001d8:	05432d03          	lw	s10,84(t1)
800001dc:	05832d83          	lw	s11,88(t1)

800001e0 <no_reschedule>:
800001e0:	04812283          	lw	t0,72(sp)
800001e4:	34129073          	csrw	mepc,t0
800001e8:	04c12283          	lw	t0,76(sp)
800001ec:	30029073          	csrw	mstatus,t0
800001f0:	00012083          	lw	ra,0(sp)
800001f4:	00412183          	lw	gp,4(sp)
800001f8:	00812203          	lw	tp,8(sp)
800001fc:	00c12283          	lw	t0,12(sp)
80000200:	01012303          	lw	t1,16(sp)
80000204:	01412383          	lw	t2,20(sp)
80000208:	01812e03          	lw	t3,24(sp)
8000020c:	01c12e83          	lw	t4,28(sp)
80000210:	02012f03          	lw	t5,32(sp)
80000214:	02412f83          	lw	t6,36(sp)
80000218:	02812503          	lw	a0,40(sp)
8000021c:	02c12583          	lw	a1,44(sp)
80000220:	03012603          	lw	a2,48(sp)
80000224:	03412683          	lw	a3,52(sp)
80000228:	03812703          	lw	a4,56(sp)
8000022c:	03c12783          	lw	a5,60(sp)
80000230:	04012803          	lw	a6,64(sp)
80000234:	04412883          	lw	a7,68(sp)
80000238:	05010113          	addi	sp,sp,80
8000023c:	30200073          	mret

80000240 <__soc_handle_irq>:
80000240:	00100313          	li	t1,1
80000244:	00a312b3          	sll	t0,t1,a0
80000248:	3442b373          	csrrc	t1,mip,t0
8000024c:	00008067          	ret

80000250 <__soc_is_irq>:
80000250:	342022f3          	csrr	t0,mcause
80000254:	80000337          	lui	t1,0x80000
80000258:	0062f2b3          	and	t0,t0,t1
8000025c:	00000513          	li	a0,0
80000260:	00028463          	beqz	t0,80000268 <not_interrupt>
80000264:	00150513          	addi	a0,a0,1

80000268 <not_interrupt>:
80000268:	00008067          	ret

8000026c <__swap>:
8000026c:	00000073          	ecall
80000270:	00003297          	auipc	t0,0x3
80000274:	4b828293          	addi	t0,t0,1208 # 80003728 <_kernel>
80000278:	0082a303          	lw	t1,8(t0)
8000027c:	06832383          	lw	t2,104(t1) # 80000068 <CONFIG_OFFLOAD_WORKQUEUE_PRIORITY+0x80000069>
80000280:	00857513          	andi	a0,a0,8
80000284:	300522f3          	csrrs	t0,mstatus,a0
80000288:	00038513          	mv	a0,t2
8000028c:	00008067          	ret

Disassembly of section text:

80000290 <_sw_isr_table>:
80000290:	00000000 800021a0 00000000 800021a0     .....!.......!..
800002a0:	00000000 800021a0 00000000 800021a0     .....!.......!..
800002b0:	00000000 800021a0 00000000 800021a0     .....!.......!..
800002c0:	00000000 800021a0 00000000 800016c8     .....!..........
800002d0:	00000000 800021a0 00000000 800021a0     .....!.......!..
800002e0:	00000000 800021a0 00000000 80001790     .....!..........
800002f0:	00000000 800021a0 00000000 800021a0     .....!.......!..
80000300:	00000000 800021a0 00000000 800021a0     .....!.......!..
80000310:	00000000 800021a0 00000000 800021a0     .....!.......!..
80000320:	00000000 800021a0 00000000 800021a0     .....!.......!..
80000330:	00000000 800021a0 00000000 800021a0     .....!.......!..
80000340:	00000000 800021a0 00000000 800021a0     .....!.......!..
80000350:	00000000 800021a0 00000000 800021a0     .....!.......!..
80000360:	00000000 800021a0 00000000 800021a0     .....!.......!..
80000370:	00000000 800021a0 00000000 800021a0     .....!.......!..
80000380:	00000000 800021a0 00000000 800021a0     .....!.......!..
80000390:	00000000 800021a0 00000000 800021a0     .....!.......!..
800003a0:	00000000 800021a0 00000000 800021a0     .....!.......!..
800003b0:	00000000 800021a0 00000000 800021a0     .....!.......!..
800003c0:	00000000 800021a0 00000000 800021a0     .....!.......!..
800003d0:	00000000 800021a0 00000000 800021a0     .....!.......!..
800003e0:	00000000 800021a0 00000000 800021a0     .....!.......!..
800003f0:	00000000 800021a0 00000000 800021a0     .....!.......!..
80000400:	00000000 800021a0 00000000 800021a0     .....!.......!..
80000410:	00000000 800021a0 00000000 800021a0     .....!.......!..
80000420:	00000000 800021a0 00000000 800021a0     .....!.......!..
80000430:	00000000 800021a0 00000000 800021a0     .....!.......!..
80000440:	00000000 800021a0 00000000 800021a0     .....!.......!..
80000450:	00000000 800021a0 00000000 800021a0     .....!.......!..
80000460:	00000000 800021a0 00000000 800021a0     .....!.......!..
80000470:	00000000 800021a0 00000000 800021a0     .....!.......!..
80000480:	00000000 800021a0 00000000 800021a0     .....!.......!..
80000490:	00000000 800021a0 00000000 800021a0     .....!.......!..
800004a0:	00000000 800021a0                       .....!..

800004a8 <__ffssi2>:
800004a8:	06050463          	beqz	a0,80000510 <__ffssi2+0x68>
800004ac:	40a007b3          	neg	a5,a0
800004b0:	00a7f533          	and	a0,a5,a0
800004b4:	000107b7          	lui	a5,0x10
800004b8:	02f57663          	bleu	a5,a0,800004e4 <__ffssi2+0x3c>
800004bc:	0ff00793          	li	a5,255
800004c0:	00a7b7b3          	sltu	a5,a5,a0
800004c4:	00379793          	slli	a5,a5,0x3
800004c8:	80003737          	lui	a4,0x80003
800004cc:	00f55533          	srl	a0,a0,a5
800004d0:	f3c70713          	addi	a4,a4,-196 # 80002f3c <CONFIG_OFFLOAD_WORKQUEUE_PRIORITY+0x80002f3d>
800004d4:	00e50533          	add	a0,a0,a4
800004d8:	00054503          	lbu	a0,0(a0)
800004dc:	00f50533          	add	a0,a0,a5
800004e0:	00008067          	ret
800004e4:	01000737          	lui	a4,0x1000
800004e8:	01000793          	li	a5,16
800004ec:	fce56ee3          	bltu	a0,a4,800004c8 <__ffssi2+0x20>
800004f0:	01800793          	li	a5,24
800004f4:	80003737          	lui	a4,0x80003
800004f8:	00f55533          	srl	a0,a0,a5
800004fc:	f3c70713          	addi	a4,a4,-196 # 80002f3c <CONFIG_OFFLOAD_WORKQUEUE_PRIORITY+0x80002f3d>
80000500:	00e50533          	add	a0,a0,a4
80000504:	00054503          	lbu	a0,0(a0)
80000508:	00f50533          	add	a0,a0,a5
8000050c:	00008067          	ret
80000510:	00000513          	li	a0,0
80000514:	00008067          	ret

80000518 <__udivdi3>:
80000518:	00068313          	mv	t1,a3
8000051c:	00060893          	mv	a7,a2
80000520:	00050e13          	mv	t3,a0
80000524:	00058813          	mv	a6,a1
80000528:	0c069e63          	bnez	a3,80000604 <__udivdi3+0xec>
8000052c:	12c5f863          	bleu	a2,a1,8000065c <__udivdi3+0x144>
80000530:	000107b7          	lui	a5,0x10
80000534:	22f67663          	bleu	a5,a2,80000760 <__udivdi3+0x248>
80000538:	0ff00793          	li	a5,255
8000053c:	00c7f463          	bleu	a2,a5,80000544 <__udivdi3+0x2c>
80000540:	00800313          	li	t1,8
80000544:	80003737          	lui	a4,0x80003
80000548:	006657b3          	srl	a5,a2,t1
8000054c:	f3c70713          	addi	a4,a4,-196 # 80002f3c <CONFIG_OFFLOAD_WORKQUEUE_PRIORITY+0x80002f3d>
80000550:	00e787b3          	add	a5,a5,a4
80000554:	0007c783          	lbu	a5,0(a5) # 10000 <CONFIG_RISCV_RAM_SIZE>
80000558:	00678333          	add	t1,a5,t1
8000055c:	02000793          	li	a5,32
80000560:	406787b3          	sub	a5,a5,t1
80000564:	00078c63          	beqz	a5,8000057c <__udivdi3+0x64>
80000568:	00f59733          	sll	a4,a1,a5
8000056c:	00655333          	srl	t1,a0,t1
80000570:	00f618b3          	sll	a7,a2,a5
80000574:	00e36833          	or	a6,t1,a4
80000578:	00f51e33          	sll	t3,a0,a5
8000057c:	0108d593          	srli	a1,a7,0x10
80000580:	02b85733          	divu	a4,a6,a1
80000584:	01089613          	slli	a2,a7,0x10
80000588:	01065613          	srli	a2,a2,0x10
8000058c:	010e5793          	srli	a5,t3,0x10
80000590:	02b876b3          	remu	a3,a6,a1
80000594:	02e60533          	mul	a0,a2,a4
80000598:	01069693          	slli	a3,a3,0x10
8000059c:	00f6e833          	or	a6,a3,a5
800005a0:	00a87c63          	bleu	a0,a6,800005b8 <__udivdi3+0xa0>
800005a4:	01180833          	add	a6,a6,a7
800005a8:	fff70793          	addi	a5,a4,-1
800005ac:	01186463          	bltu	a6,a7,800005b4 <__udivdi3+0x9c>
800005b0:	3ca86863          	bltu	a6,a0,80000980 <__udivdi3+0x468>
800005b4:	00078713          	mv	a4,a5
800005b8:	40a80833          	sub	a6,a6,a0
800005bc:	02b85533          	divu	a0,a6,a1
800005c0:	010e1e13          	slli	t3,t3,0x10
800005c4:	010e5e13          	srli	t3,t3,0x10
800005c8:	02b87833          	remu	a6,a6,a1
800005cc:	02a60633          	mul	a2,a2,a0
800005d0:	01081813          	slli	a6,a6,0x10
800005d4:	01c86833          	or	a6,a6,t3
800005d8:	00c87c63          	bleu	a2,a6,800005f0 <__udivdi3+0xd8>
800005dc:	01088833          	add	a6,a7,a6
800005e0:	fff50793          	addi	a5,a0,-1
800005e4:	33186663          	bltu	a6,a7,80000910 <__udivdi3+0x3f8>
800005e8:	ffe50513          	addi	a0,a0,-2
800005ec:	32c87263          	bleu	a2,a6,80000910 <__udivdi3+0x3f8>
800005f0:	01071793          	slli	a5,a4,0x10
800005f4:	00a7e7b3          	or	a5,a5,a0
800005f8:	00000593          	li	a1,0
800005fc:	00078513          	mv	a0,a5
80000600:	00008067          	ret
80000604:	12d5e663          	bltu	a1,a3,80000730 <__udivdi3+0x218>
80000608:	000107b7          	lui	a5,0x10
8000060c:	12f6ea63          	bltu	a3,a5,80000740 <__udivdi3+0x228>
80000610:	01000737          	lui	a4,0x1000
80000614:	01800793          	li	a5,24
80000618:	00e6f463          	bleu	a4,a3,80000620 <__udivdi3+0x108>
8000061c:	01000793          	li	a5,16
80000620:	800038b7          	lui	a7,0x80003
80000624:	00f6d733          	srl	a4,a3,a5
80000628:	f3c88893          	addi	a7,a7,-196 # 80002f3c <CONFIG_OFFLOAD_WORKQUEUE_PRIORITY+0x80002f3d>
8000062c:	01170733          	add	a4,a4,a7
80000630:	00074e03          	lbu	t3,0(a4) # 1000000 <CONFIG_RISCV_ROM_SIZE+0x400000>
80000634:	02000e93          	li	t4,32
80000638:	00fe0e33          	add	t3,t3,a5
8000063c:	41ce8eb3          	sub	t4,t4,t3
80000640:	120e9a63          	bnez	t4,80000774 <__udivdi3+0x25c>
80000644:	00000593          	li	a1,0
80000648:	00100793          	li	a5,1
8000064c:	0f036663          	bltu	t1,a6,80000738 <__udivdi3+0x220>
80000650:	00c537b3          	sltu	a5,a0,a2
80000654:	0017c793          	xori	a5,a5,1
80000658:	0e00006f          	j	80000738 <__udivdi3+0x220>
8000065c:	00061663          	bnez	a2,80000668 <__udivdi3+0x150>
80000660:	00100893          	li	a7,1
80000664:	02c8d8b3          	divu	a7,a7,a2
80000668:	000107b7          	lui	a5,0x10
8000066c:	0ef8e263          	bltu	a7,a5,80000750 <__udivdi3+0x238>
80000670:	010007b7          	lui	a5,0x1000
80000674:	01800313          	li	t1,24
80000678:	00f8f463          	bleu	a5,a7,80000680 <__udivdi3+0x168>
8000067c:	01000313          	li	t1,16
80000680:	80003737          	lui	a4,0x80003
80000684:	0068d7b3          	srl	a5,a7,t1
80000688:	f3c70713          	addi	a4,a4,-196 # 80002f3c <CONFIG_OFFLOAD_WORKQUEUE_PRIORITY+0x80002f3d>
8000068c:	00e787b3          	add	a5,a5,a4
80000690:	0007c783          	lbu	a5,0(a5) # 1000000 <CONFIG_RISCV_ROM_SIZE+0x400000>
80000694:	00678333          	add	t1,a5,t1
80000698:	02000793          	li	a5,32
8000069c:	406787b3          	sub	a5,a5,t1
800006a0:	1c079263          	bnez	a5,80000864 <__udivdi3+0x34c>
800006a4:	01089f13          	slli	t5,a7,0x10
800006a8:	41158733          	sub	a4,a1,a7
800006ac:	0108de93          	srli	t4,a7,0x10
800006b0:	010f5f13          	srli	t5,t5,0x10
800006b4:	00100593          	li	a1,1
800006b8:	010e5793          	srli	a5,t3,0x10
800006bc:	03d756b3          	divu	a3,a4,t4
800006c0:	03d77733          	remu	a4,a4,t4
800006c4:	03e68633          	mul	a2,a3,t5
800006c8:	01071713          	slli	a4,a4,0x10
800006cc:	00f767b3          	or	a5,a4,a5
800006d0:	00c7fc63          	bleu	a2,a5,800006e8 <__udivdi3+0x1d0>
800006d4:	011787b3          	add	a5,a5,a7
800006d8:	fff68713          	addi	a4,a3,-1
800006dc:	0117e463          	bltu	a5,a7,800006e4 <__udivdi3+0x1cc>
800006e0:	28c7ea63          	bltu	a5,a2,80000974 <__udivdi3+0x45c>
800006e4:	00070693          	mv	a3,a4
800006e8:	40c787b3          	sub	a5,a5,a2
800006ec:	03d7d533          	divu	a0,a5,t4
800006f0:	010e1e13          	slli	t3,t3,0x10
800006f4:	010e5e13          	srli	t3,t3,0x10
800006f8:	03d7f7b3          	remu	a5,a5,t4
800006fc:	03e50f33          	mul	t5,a0,t5
80000700:	01079793          	slli	a5,a5,0x10
80000704:	01c7e7b3          	or	a5,a5,t3
80000708:	01e7fc63          	bleu	t5,a5,80000720 <__udivdi3+0x208>
8000070c:	00f887b3          	add	a5,a7,a5
80000710:	fff50713          	addi	a4,a0,-1
80000714:	1f17ea63          	bltu	a5,a7,80000908 <__udivdi3+0x3f0>
80000718:	ffe50513          	addi	a0,a0,-2
8000071c:	1fe7f663          	bleu	t5,a5,80000908 <__udivdi3+0x3f0>
80000720:	01069793          	slli	a5,a3,0x10
80000724:	00a7e7b3          	or	a5,a5,a0
80000728:	00078513          	mv	a0,a5
8000072c:	00008067          	ret
80000730:	00000593          	li	a1,0
80000734:	00000793          	li	a5,0
80000738:	00078513          	mv	a0,a5
8000073c:	00008067          	ret
80000740:	0ff00e13          	li	t3,255
80000744:	00de37b3          	sltu	a5,t3,a3
80000748:	00379793          	slli	a5,a5,0x3
8000074c:	ed5ff06f          	j	80000620 <__udivdi3+0x108>
80000750:	0ff00793          	li	a5,255
80000754:	f317f6e3          	bleu	a7,a5,80000680 <__udivdi3+0x168>
80000758:	00800313          	li	t1,8
8000075c:	f25ff06f          	j	80000680 <__udivdi3+0x168>
80000760:	010007b7          	lui	a5,0x1000
80000764:	01800313          	li	t1,24
80000768:	dcf67ee3          	bleu	a5,a2,80000544 <__udivdi3+0x2c>
8000076c:	01000313          	li	t1,16
80000770:	dd5ff06f          	j	80000544 <__udivdi3+0x2c>
80000774:	01c65833          	srl	a6,a2,t3
80000778:	01d696b3          	sll	a3,a3,t4
8000077c:	00d86833          	or	a6,a6,a3
80000780:	01c5d8b3          	srl	a7,a1,t3
80000784:	01085f13          	srli	t5,a6,0x10
80000788:	03e8d333          	divu	t1,a7,t5
8000078c:	01081713          	slli	a4,a6,0x10
80000790:	01075713          	srli	a4,a4,0x10
80000794:	01d595b3          	sll	a1,a1,t4
80000798:	01c55e33          	srl	t3,a0,t3
8000079c:	00be65b3          	or	a1,t3,a1
800007a0:	0105d693          	srli	a3,a1,0x10
800007a4:	01d61633          	sll	a2,a2,t4
800007a8:	03e8f8b3          	remu	a7,a7,t5
800007ac:	026707b3          	mul	a5,a4,t1
800007b0:	01089893          	slli	a7,a7,0x10
800007b4:	00d8e6b3          	or	a3,a7,a3
800007b8:	00f6fa63          	bleu	a5,a3,800007cc <__udivdi3+0x2b4>
800007bc:	010686b3          	add	a3,a3,a6
800007c0:	fff30893          	addi	a7,t1,-1
800007c4:	1906f863          	bleu	a6,a3,80000954 <__udivdi3+0x43c>
800007c8:	00088313          	mv	t1,a7
800007cc:	40f686b3          	sub	a3,a3,a5
800007d0:	03e6de33          	divu	t3,a3,t5
800007d4:	01059593          	slli	a1,a1,0x10
800007d8:	0105d593          	srli	a1,a1,0x10
800007dc:	03e6f6b3          	remu	a3,a3,t5
800007e0:	03c708b3          	mul	a7,a4,t3
800007e4:	01069693          	slli	a3,a3,0x10
800007e8:	00b6e733          	or	a4,a3,a1
800007ec:	01177a63          	bleu	a7,a4,80000800 <__udivdi3+0x2e8>
800007f0:	01070733          	add	a4,a4,a6
800007f4:	fffe0793          	addi	a5,t3,-1
800007f8:	15077663          	bleu	a6,a4,80000944 <__udivdi3+0x42c>
800007fc:	00078e13          	mv	t3,a5
80000800:	01031793          	slli	a5,t1,0x10
80000804:	00010f37          	lui	t5,0x10
80000808:	01c7e7b3          	or	a5,a5,t3
8000080c:	ffff0693          	addi	a3,t5,-1 # ffff <CONFIG_SYS_CLOCK_HW_CYCLES_PER_SEC+0x7fed>
80000810:	00d7f5b3          	and	a1,a5,a3
80000814:	0107d313          	srli	t1,a5,0x10
80000818:	00d676b3          	and	a3,a2,a3
8000081c:	01065613          	srli	a2,a2,0x10
80000820:	02d58e33          	mul	t3,a1,a3
80000824:	41170733          	sub	a4,a4,a7
80000828:	02c585b3          	mul	a1,a1,a2
8000082c:	010e5813          	srli	a6,t3,0x10
80000830:	02d306b3          	mul	a3,t1,a3
80000834:	00d585b3          	add	a1,a1,a3
80000838:	00b805b3          	add	a1,a6,a1
8000083c:	02c30633          	mul	a2,t1,a2
80000840:	00d5f463          	bleu	a3,a1,80000848 <__udivdi3+0x330>
80000844:	01e60633          	add	a2,a2,t5
80000848:	0105d693          	srli	a3,a1,0x10
8000084c:	00c68633          	add	a2,a3,a2
80000850:	0ec76463          	bltu	a4,a2,80000938 <__udivdi3+0x420>
80000854:	0cc70263          	beq	a4,a2,80000918 <__udivdi3+0x400>
80000858:	00000593          	li	a1,0
8000085c:	00078513          	mv	a0,a5
80000860:	00008067          	ret
80000864:	00f898b3          	sll	a7,a7,a5
80000868:	0065d633          	srl	a2,a1,t1
8000086c:	0108de93          	srli	t4,a7,0x10
80000870:	03d65fb3          	divu	t6,a2,t4
80000874:	01089f13          	slli	t5,a7,0x10
80000878:	010f5f13          	srli	t5,t5,0x10
8000087c:	00f59733          	sll	a4,a1,a5
80000880:	00f51e33          	sll	t3,a0,a5
80000884:	00655333          	srl	t1,a0,t1
80000888:	00e36733          	or	a4,t1,a4
8000088c:	01075593          	srli	a1,a4,0x10
80000890:	03d676b3          	remu	a3,a2,t4
80000894:	03ff07b3          	mul	a5,t5,t6
80000898:	01069693          	slli	a3,a3,0x10
8000089c:	00b6e6b3          	or	a3,a3,a1
800008a0:	00f6fe63          	bleu	a5,a3,800008bc <__udivdi3+0x3a4>
800008a4:	011686b3          	add	a3,a3,a7
800008a8:	ffff8613          	addi	a2,t6,-1
800008ac:	0d16e063          	bltu	a3,a7,8000096c <__udivdi3+0x454>
800008b0:	0af6fe63          	bleu	a5,a3,8000096c <__udivdi3+0x454>
800008b4:	ffef8f93          	addi	t6,t6,-2
800008b8:	011686b3          	add	a3,a3,a7
800008bc:	40f686b3          	sub	a3,a3,a5
800008c0:	03d6d7b3          	divu	a5,a3,t4
800008c4:	01071313          	slli	t1,a4,0x10
800008c8:	01035313          	srli	t1,t1,0x10
800008cc:	03d6f6b3          	remu	a3,a3,t4
800008d0:	02ff0633          	mul	a2,t5,a5
800008d4:	01069713          	slli	a4,a3,0x10
800008d8:	00676733          	or	a4,a4,t1
800008dc:	00c77e63          	bleu	a2,a4,800008f8 <__udivdi3+0x3e0>
800008e0:	01170733          	add	a4,a4,a7
800008e4:	fff78693          	addi	a3,a5,-1 # ffffff <CONFIG_RISCV_ROM_SIZE+0x3fffff>
800008e8:	07176e63          	bltu	a4,a7,80000964 <__udivdi3+0x44c>
800008ec:	06c77c63          	bleu	a2,a4,80000964 <__udivdi3+0x44c>
800008f0:	ffe78793          	addi	a5,a5,-2
800008f4:	01170733          	add	a4,a4,a7
800008f8:	010f9593          	slli	a1,t6,0x10
800008fc:	40c70733          	sub	a4,a4,a2
80000900:	00f5e5b3          	or	a1,a1,a5
80000904:	db5ff06f          	j	800006b8 <__udivdi3+0x1a0>
80000908:	00070513          	mv	a0,a4
8000090c:	e15ff06f          	j	80000720 <__udivdi3+0x208>
80000910:	00078513          	mv	a0,a5
80000914:	cddff06f          	j	800005f0 <__udivdi3+0xd8>
80000918:	000106b7          	lui	a3,0x10
8000091c:	fff68693          	addi	a3,a3,-1 # ffff <CONFIG_SYS_CLOCK_HW_CYCLES_PER_SEC+0x7fed>
80000920:	00d5f733          	and	a4,a1,a3
80000924:	01071713          	slli	a4,a4,0x10
80000928:	00de7e33          	and	t3,t3,a3
8000092c:	01d51533          	sll	a0,a0,t4
80000930:	01c70733          	add	a4,a4,t3
80000934:	f2e572e3          	bleu	a4,a0,80000858 <__udivdi3+0x340>
80000938:	fff78793          	addi	a5,a5,-1
8000093c:	00000593          	li	a1,0
80000940:	f1dff06f          	j	8000085c <__udivdi3+0x344>
80000944:	eb177ce3          	bleu	a7,a4,800007fc <__udivdi3+0x2e4>
80000948:	ffee0e13          	addi	t3,t3,-2
8000094c:	01070733          	add	a4,a4,a6
80000950:	eb1ff06f          	j	80000800 <__udivdi3+0x2e8>
80000954:	e6f6fae3          	bleu	a5,a3,800007c8 <__udivdi3+0x2b0>
80000958:	ffe30313          	addi	t1,t1,-2
8000095c:	010686b3          	add	a3,a3,a6
80000960:	e6dff06f          	j	800007cc <__udivdi3+0x2b4>
80000964:	00068793          	mv	a5,a3
80000968:	f91ff06f          	j	800008f8 <__udivdi3+0x3e0>
8000096c:	00060f93          	mv	t6,a2
80000970:	f4dff06f          	j	800008bc <__udivdi3+0x3a4>
80000974:	ffe68693          	addi	a3,a3,-2
80000978:	011787b3          	add	a5,a5,a7
8000097c:	d6dff06f          	j	800006e8 <__udivdi3+0x1d0>
80000980:	ffe70713          	addi	a4,a4,-2
80000984:	01180833          	add	a6,a6,a7
80000988:	c31ff06f          	j	800005b8 <__udivdi3+0xa0>

8000098c <__umoddi3>:
8000098c:	00068893          	mv	a7,a3
80000990:	00060813          	mv	a6,a2
80000994:	00050e93          	mv	t4,a0
80000998:	00058313          	mv	t1,a1
8000099c:	0c069863          	bnez	a3,80000a6c <__umoddi3+0xe0>
800009a0:	12c5fa63          	bleu	a2,a1,80000ad4 <__umoddi3+0x148>
800009a4:	000107b7          	lui	a5,0x10
800009a8:	1ef66c63          	bltu	a2,a5,80000ba0 <__umoddi3+0x214>
800009ac:	010007b7          	lui	a5,0x1000
800009b0:	01800893          	li	a7,24
800009b4:	00f67463          	bleu	a5,a2,800009bc <__umoddi3+0x30>
800009b8:	01000893          	li	a7,16
800009bc:	80003737          	lui	a4,0x80003
800009c0:	011657b3          	srl	a5,a2,a7
800009c4:	f3c70713          	addi	a4,a4,-196 # 80002f3c <CONFIG_OFFLOAD_WORKQUEUE_PRIORITY+0x80002f3d>
800009c8:	00e787b3          	add	a5,a5,a4
800009cc:	0007c783          	lbu	a5,0(a5) # 1000000 <CONFIG_RISCV_ROM_SIZE+0x400000>
800009d0:	02000e13          	li	t3,32
800009d4:	011788b3          	add	a7,a5,a7
800009d8:	411e0e33          	sub	t3,t3,a7
800009dc:	000e0c63          	beqz	t3,800009f4 <__umoddi3+0x68>
800009e0:	01c595b3          	sll	a1,a1,t3
800009e4:	011558b3          	srl	a7,a0,a7
800009e8:	01c61833          	sll	a6,a2,t3
800009ec:	00b8e333          	or	t1,a7,a1
800009f0:	01c51eb3          	sll	t4,a0,t3
800009f4:	01085613          	srli	a2,a6,0x10
800009f8:	02c357b3          	divu	a5,t1,a2
800009fc:	01081513          	slli	a0,a6,0x10
80000a00:	01055513          	srli	a0,a0,0x10
80000a04:	010ed713          	srli	a4,t4,0x10
80000a08:	02c376b3          	remu	a3,t1,a2
80000a0c:	02f507b3          	mul	a5,a0,a5
80000a10:	01069693          	slli	a3,a3,0x10
80000a14:	00e6e733          	or	a4,a3,a4
80000a18:	00f77863          	bleu	a5,a4,80000a28 <__umoddi3+0x9c>
80000a1c:	01070733          	add	a4,a4,a6
80000a20:	01076463          	bltu	a4,a6,80000a28 <__umoddi3+0x9c>
80000a24:	36f76c63          	bltu	a4,a5,80000d9c <__umoddi3+0x410>
80000a28:	40f70733          	sub	a4,a4,a5
80000a2c:	02c756b3          	divu	a3,a4,a2
80000a30:	010e9793          	slli	a5,t4,0x10
80000a34:	0107d793          	srli	a5,a5,0x10
80000a38:	02c77733          	remu	a4,a4,a2
80000a3c:	02d50533          	mul	a0,a0,a3
80000a40:	01071713          	slli	a4,a4,0x10
80000a44:	00f767b3          	or	a5,a4,a5
80000a48:	00a7fa63          	bleu	a0,a5,80000a5c <__umoddi3+0xd0>
80000a4c:	010787b3          	add	a5,a5,a6
80000a50:	0107e663          	bltu	a5,a6,80000a5c <__umoddi3+0xd0>
80000a54:	00a7f463          	bleu	a0,a5,80000a5c <__umoddi3+0xd0>
80000a58:	010787b3          	add	a5,a5,a6
80000a5c:	40a78533          	sub	a0,a5,a0
80000a60:	01c55533          	srl	a0,a0,t3
80000a64:	00000593          	li	a1,0
80000a68:	00008067          	ret
80000a6c:	fed5eee3          	bltu	a1,a3,80000a68 <__umoddi3+0xdc>
80000a70:	000107b7          	lui	a5,0x10
80000a74:	10f6e663          	bltu	a3,a5,80000b80 <__umoddi3+0x1f4>
80000a78:	01000737          	lui	a4,0x1000
80000a7c:	01800793          	li	a5,24
80000a80:	00e6f463          	bleu	a4,a3,80000a88 <__umoddi3+0xfc>
80000a84:	01000793          	li	a5,16
80000a88:	80003e37          	lui	t3,0x80003
80000a8c:	f3ce0e13          	addi	t3,t3,-196 # 80002f3c <CONFIG_OFFLOAD_WORKQUEUE_PRIORITY+0x80002f3d>
80000a90:	00f6d733          	srl	a4,a3,a5
80000a94:	01c70733          	add	a4,a4,t3
80000a98:	00074f03          	lbu	t5,0(a4) # 1000000 <CONFIG_RISCV_ROM_SIZE+0x400000>
80000a9c:	02000e13          	li	t3,32
80000aa0:	00ff0f33          	add	t5,t5,a5
80000aa4:	41ee0e33          	sub	t3,t3,t5
80000aa8:	100e1463          	bnez	t3,80000bb0 <__umoddi3+0x224>
80000aac:	0068e663          	bltu	a7,t1,80000ab8 <__umoddi3+0x12c>
80000ab0:	00050793          	mv	a5,a0
80000ab4:	010eea63          	bltu	t4,a6,80000ac8 <__umoddi3+0x13c>
80000ab8:	40c507b3          	sub	a5,a0,a2
80000abc:	40d585b3          	sub	a1,a1,a3
80000ac0:	00f536b3          	sltu	a3,a0,a5
80000ac4:	40d58333          	sub	t1,a1,a3
80000ac8:	00078513          	mv	a0,a5
80000acc:	00030593          	mv	a1,t1
80000ad0:	00008067          	ret
80000ad4:	00061663          	bnez	a2,80000ae0 <__umoddi3+0x154>
80000ad8:	00100813          	li	a6,1
80000adc:	02c85833          	divu	a6,a6,a2
80000ae0:	000107b7          	lui	a5,0x10
80000ae4:	0af86663          	bltu	a6,a5,80000b90 <__umoddi3+0x204>
80000ae8:	010007b7          	lui	a5,0x1000
80000aec:	01800893          	li	a7,24
80000af0:	00f87463          	bleu	a5,a6,80000af8 <__umoddi3+0x16c>
80000af4:	01000893          	li	a7,16
80000af8:	80003737          	lui	a4,0x80003
80000afc:	011857b3          	srl	a5,a6,a7
80000b00:	f3c70713          	addi	a4,a4,-196 # 80002f3c <CONFIG_OFFLOAD_WORKQUEUE_PRIORITY+0x80002f3d>
80000b04:	00e787b3          	add	a5,a5,a4
80000b08:	0007c783          	lbu	a5,0(a5) # 1000000 <CONFIG_RISCV_ROM_SIZE+0x400000>
80000b0c:	02000e13          	li	t3,32
80000b10:	011788b3          	add	a7,a5,a7
80000b14:	411e0e33          	sub	t3,t3,a7
80000b18:	1c0e1063          	bnez	t3,80000cd8 <__umoddi3+0x34c>
80000b1c:	01081793          	slli	a5,a6,0x10
80000b20:	410585b3          	sub	a1,a1,a6
80000b24:	01085613          	srli	a2,a6,0x10
80000b28:	0107d793          	srli	a5,a5,0x10
80000b2c:	010ed713          	srli	a4,t4,0x10
80000b30:	02c5d6b3          	divu	a3,a1,a2
80000b34:	02c5f5b3          	remu	a1,a1,a2
80000b38:	02f686b3          	mul	a3,a3,a5
80000b3c:	01059593          	slli	a1,a1,0x10
80000b40:	00e5e733          	or	a4,a1,a4
80000b44:	00d77a63          	bleu	a3,a4,80000b58 <__umoddi3+0x1cc>
80000b48:	01070733          	add	a4,a4,a6
80000b4c:	01076663          	bltu	a4,a6,80000b58 <__umoddi3+0x1cc>
80000b50:	00d77463          	bleu	a3,a4,80000b58 <__umoddi3+0x1cc>
80000b54:	01070733          	add	a4,a4,a6
80000b58:	40d70733          	sub	a4,a4,a3
80000b5c:	02c75533          	divu	a0,a4,a2
80000b60:	010e9e93          	slli	t4,t4,0x10
80000b64:	010ede93          	srli	t4,t4,0x10
80000b68:	02c77733          	remu	a4,a4,a2
80000b6c:	02f50533          	mul	a0,a0,a5
80000b70:	01071713          	slli	a4,a4,0x10
80000b74:	01d767b3          	or	a5,a4,t4
80000b78:	eea7f2e3          	bleu	a0,a5,80000a5c <__umoddi3+0xd0>
80000b7c:	ed1ff06f          	j	80000a4c <__umoddi3+0xc0>
80000b80:	0ff00f13          	li	t5,255
80000b84:	00df37b3          	sltu	a5,t5,a3
80000b88:	00379793          	slli	a5,a5,0x3
80000b8c:	efdff06f          	j	80000a88 <__umoddi3+0xfc>
80000b90:	0ff00793          	li	a5,255
80000b94:	f707f2e3          	bleu	a6,a5,80000af8 <__umoddi3+0x16c>
80000b98:	00800893          	li	a7,8
80000b9c:	f5dff06f          	j	80000af8 <__umoddi3+0x16c>
80000ba0:	0ff00793          	li	a5,255
80000ba4:	e0c7fce3          	bleu	a2,a5,800009bc <__umoddi3+0x30>
80000ba8:	00800893          	li	a7,8
80000bac:	e11ff06f          	j	800009bc <__umoddi3+0x30>
80000bb0:	01e657b3          	srl	a5,a2,t5
80000bb4:	01c696b3          	sll	a3,a3,t3
80000bb8:	00d7e6b3          	or	a3,a5,a3
80000bbc:	01e5d8b3          	srl	a7,a1,t5
80000bc0:	0106d713          	srli	a4,a3,0x10
80000bc4:	02e8d333          	divu	t1,a7,a4
80000bc8:	01069f93          	slli	t6,a3,0x10
80000bcc:	01e557b3          	srl	a5,a0,t5
80000bd0:	010fdf93          	srli	t6,t6,0x10
80000bd4:	01c595b3          	sll	a1,a1,t3
80000bd8:	00b7e5b3          	or	a1,a5,a1
80000bdc:	01c617b3          	sll	a5,a2,t3
80000be0:	0105d813          	srli	a6,a1,0x10
80000be4:	01c51533          	sll	a0,a0,t3
80000be8:	02e8f8b3          	remu	a7,a7,a4
80000bec:	026f8633          	mul	a2,t6,t1
80000bf0:	01089893          	slli	a7,a7,0x10
80000bf4:	0108e833          	or	a6,a7,a6
80000bf8:	00c87a63          	bleu	a2,a6,80000c0c <__umoddi3+0x280>
80000bfc:	00d80833          	add	a6,a6,a3
80000c00:	fff30893          	addi	a7,t1,-1
80000c04:	18d87463          	bleu	a3,a6,80000d8c <__umoddi3+0x400>
80000c08:	00088313          	mv	t1,a7
80000c0c:	40c80833          	sub	a6,a6,a2
80000c10:	02e85633          	divu	a2,a6,a4
80000c14:	01059593          	slli	a1,a1,0x10
80000c18:	0105d593          	srli	a1,a1,0x10
80000c1c:	02e87833          	remu	a6,a6,a4
80000c20:	02cf8fb3          	mul	t6,t6,a2
80000c24:	01081713          	slli	a4,a6,0x10
80000c28:	00b76733          	or	a4,a4,a1
80000c2c:	01f77a63          	bleu	t6,a4,80000c40 <__umoddi3+0x2b4>
80000c30:	00d70733          	add	a4,a4,a3
80000c34:	fff60593          	addi	a1,a2,-1
80000c38:	14d77263          	bleu	a3,a4,80000d7c <__umoddi3+0x3f0>
80000c3c:	00058613          	mv	a2,a1
80000c40:	01031313          	slli	t1,t1,0x10
80000c44:	000105b7          	lui	a1,0x10
80000c48:	00c36333          	or	t1,t1,a2
80000c4c:	fff58893          	addi	a7,a1,-1 # ffff <CONFIG_SYS_CLOCK_HW_CYCLES_PER_SEC+0x7fed>
80000c50:	01137eb3          	and	t4,t1,a7
80000c54:	0107d613          	srli	a2,a5,0x10
80000c58:	01035313          	srli	t1,t1,0x10
80000c5c:	0117f8b3          	and	a7,a5,a7
80000c60:	031e82b3          	mul	t0,t4,a7
80000c64:	41f70733          	sub	a4,a4,t6
80000c68:	02ce8eb3          	mul	t4,t4,a2
80000c6c:	0102d813          	srli	a6,t0,0x10
80000c70:	031308b3          	mul	a7,t1,a7
80000c74:	011e8eb3          	add	t4,t4,a7
80000c78:	01d80833          	add	a6,a6,t4
80000c7c:	02c30633          	mul	a2,t1,a2
80000c80:	01187463          	bleu	a7,a6,80000c88 <__umoddi3+0x2fc>
80000c84:	00b60633          	add	a2,a2,a1
80000c88:	000108b7          	lui	a7,0x10
80000c8c:	fff88893          	addi	a7,a7,-1 # ffff <CONFIG_SYS_CLOCK_HW_CYCLES_PER_SEC+0x7fed>
80000c90:	01085593          	srli	a1,a6,0x10
80000c94:	01187833          	and	a6,a6,a7
80000c98:	01081813          	slli	a6,a6,0x10
80000c9c:	0112f2b3          	and	t0,t0,a7
80000ca0:	00c58633          	add	a2,a1,a2
80000ca4:	00580833          	add	a6,a6,t0
80000ca8:	0ac76e63          	bltu	a4,a2,80000d64 <__umoddi3+0x3d8>
80000cac:	0ec70c63          	beq	a4,a2,80000da4 <__umoddi3+0x418>
80000cb0:	40c705b3          	sub	a1,a4,a2
80000cb4:	00080793          	mv	a5,a6
80000cb8:	40f507b3          	sub	a5,a0,a5
80000cbc:	00f53533          	sltu	a0,a0,a5
80000cc0:	40a585b3          	sub	a1,a1,a0
80000cc4:	01e59f33          	sll	t5,a1,t5
80000cc8:	01c7d533          	srl	a0,a5,t3
80000ccc:	00af6533          	or	a0,t5,a0
80000cd0:	01c5d5b3          	srl	a1,a1,t3
80000cd4:	00008067          	ret
80000cd8:	01c81833          	sll	a6,a6,t3
80000cdc:	0115d733          	srl	a4,a1,a7
80000ce0:	01085613          	srli	a2,a6,0x10
80000ce4:	02c756b3          	divu	a3,a4,a2
80000ce8:	01081793          	slli	a5,a6,0x10
80000cec:	0107d793          	srli	a5,a5,0x10
80000cf0:	011558b3          	srl	a7,a0,a7
80000cf4:	01c51eb3          	sll	t4,a0,t3
80000cf8:	01c595b3          	sll	a1,a1,t3
80000cfc:	00b8e5b3          	or	a1,a7,a1
80000d00:	0105d893          	srli	a7,a1,0x10
80000d04:	02c77733          	remu	a4,a4,a2
80000d08:	02d78533          	mul	a0,a5,a3
80000d0c:	01071693          	slli	a3,a4,0x10
80000d10:	0116e6b3          	or	a3,a3,a7
80000d14:	00a6fa63          	bleu	a0,a3,80000d28 <__umoddi3+0x39c>
80000d18:	010686b3          	add	a3,a3,a6
80000d1c:	0106e663          	bltu	a3,a6,80000d28 <__umoddi3+0x39c>
80000d20:	00a6f463          	bleu	a0,a3,80000d28 <__umoddi3+0x39c>
80000d24:	010686b3          	add	a3,a3,a6
80000d28:	40a686b3          	sub	a3,a3,a0
80000d2c:	02c6d733          	divu	a4,a3,a2
80000d30:	01059893          	slli	a7,a1,0x10
80000d34:	0108d893          	srli	a7,a7,0x10
80000d38:	02c6f6b3          	remu	a3,a3,a2
80000d3c:	02e78733          	mul	a4,a5,a4
80000d40:	01069593          	slli	a1,a3,0x10
80000d44:	0115e5b3          	or	a1,a1,a7
80000d48:	00e5fa63          	bleu	a4,a1,80000d5c <__umoddi3+0x3d0>
80000d4c:	010585b3          	add	a1,a1,a6
80000d50:	0105e663          	bltu	a1,a6,80000d5c <__umoddi3+0x3d0>
80000d54:	00e5f463          	bleu	a4,a1,80000d5c <__umoddi3+0x3d0>
80000d58:	010585b3          	add	a1,a1,a6
80000d5c:	40e585b3          	sub	a1,a1,a4
80000d60:	dcdff06f          	j	80000b2c <__umoddi3+0x1a0>
80000d64:	40f807b3          	sub	a5,a6,a5
80000d68:	40d605b3          	sub	a1,a2,a3
80000d6c:	00f83833          	sltu	a6,a6,a5
80000d70:	410585b3          	sub	a1,a1,a6
80000d74:	40b705b3          	sub	a1,a4,a1
80000d78:	f41ff06f          	j	80000cb8 <__umoddi3+0x32c>
80000d7c:	edf770e3          	bleu	t6,a4,80000c3c <__umoddi3+0x2b0>
80000d80:	ffe60613          	addi	a2,a2,-2
80000d84:	00d70733          	add	a4,a4,a3
80000d88:	eb9ff06f          	j	80000c40 <__umoddi3+0x2b4>
80000d8c:	e6c87ee3          	bleu	a2,a6,80000c08 <__umoddi3+0x27c>
80000d90:	ffe30313          	addi	t1,t1,-2
80000d94:	00d80833          	add	a6,a6,a3
80000d98:	e75ff06f          	j	80000c0c <__umoddi3+0x280>
80000d9c:	01070733          	add	a4,a4,a6
80000da0:	c89ff06f          	j	80000a28 <__umoddi3+0x9c>
80000da4:	fd0560e3          	bltu	a0,a6,80000d64 <__umoddi3+0x3d8>
80000da8:	00080793          	mv	a5,a6
80000dac:	00000593          	li	a1,0
80000db0:	f09ff06f          	j	80000cb8 <__umoddi3+0x32c>

80000db4 <print_device_drivers>:
80000db4:	fe010113          	addi	sp,sp,-32
80000db8:	00812c23          	sw	s0,24(sp)
80000dbc:	00912a23          	sw	s1,20(sp)
80000dc0:	80003437          	lui	s0,0x80003
80000dc4:	800034b7          	lui	s1,0x80003
80000dc8:	58048793          	addi	a5,s1,1408 # 80003580 <CONFIG_OFFLOAD_WORKQUEUE_PRIORITY+0x80003581>
80000dcc:	5b040413          	addi	s0,s0,1456 # 800035b0 <CONFIG_OFFLOAD_WORKQUEUE_PRIORITY+0x800035b1>
80000dd0:	40f40433          	sub	s0,s0,a5
80000dd4:	aaaab7b7          	lui	a5,0xaaaab
80000dd8:	aab78793          	addi	a5,a5,-1365 # aaaaaaab <CONFIG_OFFLOAD_WORKQUEUE_PRIORITY+0xaaaaaaac>
80000ddc:	40245413          	srai	s0,s0,0x2
80000de0:	02f40433          	mul	s0,s0,a5
80000de4:	80003537          	lui	a0,0x80003
80000de8:	01312623          	sw	s3,12(sp)
80000dec:	07050513          	addi	a0,a0,112 # 80003070 <CONFIG_OFFLOAD_WORKQUEUE_PRIORITY+0x80003071>
80000df0:	800039b7          	lui	s3,0x80003
80000df4:	01212823          	sw	s2,16(sp)
80000df8:	01512223          	sw	s5,4(sp)
80000dfc:	01612023          	sw	s6,0(sp)
80000e00:	00112e23          	sw	ra,28(sp)
80000e04:	01412423          	sw	s4,8(sp)
80000e08:	00040593          	mv	a1,s0
80000e0c:	090010ef          	jal	ra,80001e9c <printk>
80000e10:	58048493          	addi	s1,s1,1408
80000e14:	00000913          	li	s2,0
80000e18:	80003ab7          	lui	s5,0x80003
80000e1c:	06498993          	addi	s3,s3,100 # 80003064 <CONFIG_OFFLOAD_WORKQUEUE_PRIORITY+0x80003065>
80000e20:	80003b37          	lui	s6,0x80003
80000e24:	02894a63          	blt	s2,s0,80000e58 <print_device_drivers+0xa4>
80000e28:	01c12083          	lw	ra,28(sp)
80000e2c:	01812403          	lw	s0,24(sp)
80000e30:	01412483          	lw	s1,20(sp)
80000e34:	01012903          	lw	s2,16(sp)
80000e38:	00c12983          	lw	s3,12(sp)
80000e3c:	00812a03          	lw	s4,8(sp)
80000e40:	00412a83          	lw	s5,4(sp)
80000e44:	00012b03          	lw	s6,0(sp)
80000e48:	80003537          	lui	a0,0x80003
80000e4c:	1ec50513          	addi	a0,a0,492 # 800031ec <CONFIG_OFFLOAD_WORKQUEUE_PRIORITY+0x800031ed>
80000e50:	02010113          	addi	sp,sp,32
80000e54:	0480106f          	j	80001e9c <printk>
80000e58:	0004a783          	lw	a5,0(s1)
80000e5c:	12ca8513          	addi	a0,s5,300 # 8000312c <CONFIG_OFFLOAD_WORKQUEUE_PRIORITY+0x8000312d>
80000e60:	0007aa03          	lw	s4,0(a5)
80000e64:	000a0593          	mv	a1,s4
80000e68:	71c000ef          	jal	ra,80001584 <strcmp>
80000e6c:	00051463          	bnez	a0,80000e74 <print_device_drivers+0xc0>
80000e70:	00098a13          	mv	s4,s3
80000e74:	0004a783          	lw	a5,0(s1)
80000e78:	000a0593          	mv	a1,s4
80000e7c:	08cb0513          	addi	a0,s6,140 # 8000308c <CONFIG_OFFLOAD_WORKQUEUE_PRIORITY+0x8000308d>
80000e80:	0087a603          	lw	a2,8(a5)
80000e84:	00190913          	addi	s2,s2,1
80000e88:	00c48493          	addi	s1,s1,12
80000e8c:	010010ef          	jal	ra,80001e9c <printk>
80000e90:	f95ff06f          	j	80000e24 <print_device_drivers+0x70>

80000e94 <main>:
80000e94:	80003537          	lui	a0,0x80003
80000e98:	ff010113          	addi	sp,sp,-16
80000e9c:	03c50513          	addi	a0,a0,60 # 8000303c <CONFIG_OFFLOAD_WORKQUEUE_PRIORITY+0x8000303d>
80000ea0:	00112623          	sw	ra,12(sp)
80000ea4:	7f9000ef          	jal	ra,80001e9c <printk>
80000ea8:	f0dff0ef          	jal	ra,80000db4 <print_device_drivers>
80000eac:	00c12083          	lw	ra,12(sp)
80000eb0:	00200513          	li	a0,2
80000eb4:	01010113          	addi	sp,sp,16
80000eb8:	00008067          	ret
80000ebc:	80003537          	lui	a0,0x80003
80000ec0:	ff010113          	addi	sp,sp,-16
80000ec4:	04c50513          	addi	a0,a0,76 # 8000304c <CONFIG_OFFLOAD_WORKQUEUE_PRIORITY+0x8000304d>
80000ec8:	00112623          	sw	ra,12(sp)
80000ecc:	1fc000ef          	jal	ra,800010c8 <printstr>
80000ed0:	00c12083          	lw	ra,12(sp)
80000ed4:	fff00513          	li	a0,-1
80000ed8:	01010113          	addi	sp,sp,16
80000edc:	00008067          	ret

80000ee0 <uart_fpgazynq_poll_in>:
80000ee0:	00000513          	li	a0,0
80000ee4:	00008067          	ret

80000ee8 <uart_fpgazynq_init>:
80000ee8:	00000513          	li	a0,0
80000eec:	00008067          	ret

80000ef0 <uart_fpgazynq_poll_out>:
80000ef0:	800037b7          	lui	a5,0x80003
80000ef4:	5b078713          	addi	a4,a5,1456 # 800035b0 <CONFIG_OFFLOAD_WORKQUEUE_PRIORITY+0x800035b1>
80000ef8:	00072603          	lw	a2,0(a4)
80000efc:	fe010113          	addi	sp,sp,-32
80000f00:	00812c23          	sw	s0,24(sp)
80000f04:	00112e23          	sw	ra,28(sp)
80000f08:	00160693          	addi	a3,a2,1
80000f0c:	80003537          	lui	a0,0x80003
80000f10:	00d72023          	sw	a3,0(a4)
80000f14:	5d050713          	addi	a4,a0,1488 # 800035d0 <CONFIG_OFFLOAD_WORKQUEUE_PRIORITY+0x800035d1>
80000f18:	00c70733          	add	a4,a4,a2
80000f1c:	00b70023          	sb	a1,0(a4)
80000f20:	00a00713          	li	a4,10
80000f24:	5b078413          	addi	s0,a5,1456
80000f28:	00e58663          	beq	a1,a4,80000f34 <uart_fpgazynq_poll_out+0x44>
80000f2c:	04000793          	li	a5,64
80000f30:	00f69c63          	bne	a3,a5,80000f48 <uart_fpgazynq_poll_out+0x58>
80000f34:	5d050513          	addi	a0,a0,1488
80000f38:	00b12623          	sw	a1,12(sp)
80000f3c:	5e8000ef          	jal	ra,80001524 <printfsvr>
80000f40:	00c12583          	lw	a1,12(sp)
80000f44:	00042023          	sw	zero,0(s0)
80000f48:	01c12083          	lw	ra,28(sp)
80000f4c:	00058513          	mv	a0,a1
80000f50:	01812403          	lw	s0,24(sp)
80000f54:	02010113          	addi	sp,sp,32
80000f58:	00008067          	ret

80000f5c <syscall.constprop.2>:
80000f5c:	ff010113          	addi	sp,sp,-16
80000f60:	00812623          	sw	s0,12(sp)
80000f64:	01010413          	addi	s0,sp,16
80000f68:	f8010113          	addi	sp,sp,-128
80000f6c:	03f10793          	addi	a5,sp,63
80000f70:	fc07f793          	andi	a5,a5,-64
80000f74:	04000813          	li	a6,64
80000f78:	0107a023          	sw	a6,0(a5)
80000f7c:	00000893          	li	a7,0
80000f80:	0117a223          	sw	a7,4(a5)
80000f84:	00100813          	li	a6,1
80000f88:	0107a423          	sw	a6,8(a5)
80000f8c:	00000893          	li	a7,0
80000f90:	0117a623          	sw	a7,12(a5)
80000f94:	00a7a823          	sw	a0,16(a5)
80000f98:	00b7aa23          	sw	a1,20(a5)
80000f9c:	00c7ac23          	sw	a2,24(a5)
80000fa0:	00d7ae23          	sw	a3,28(a5)
80000fa4:	0330000f          	fence	rw,rw
80000fa8:	80000737          	lui	a4,0x80000
80000fac:	00000693          	li	a3,0
80000fb0:	2cf72023          	sw	a5,704(a4) # 800002c0 <CONFIG_OFFLOAD_WORKQUEUE_PRIORITY+0x800002c1>
80000fb4:	2cd72223          	sw	a3,708(a4)
80000fb8:	30502773          	csrr	a4,mtvec
80000fbc:	0007a503          	lw	a0,0(a5)
80000fc0:	0047a583          	lw	a1,4(a5)
80000fc4:	0007a603          	lw	a2,0(a5)
80000fc8:	0047a683          	lw	a3,4(a5)
80000fcc:	30551073          	csrw	mtvec,a0
80000fd0:	30569073          	csrw	mtvec,a3
80000fd4:	0087a503          	lw	a0,8(a5)
80000fd8:	00c7a583          	lw	a1,12(a5)
80000fdc:	0087a603          	lw	a2,8(a5)
80000fe0:	00c7a683          	lw	a3,12(a5)
80000fe4:	30551073          	csrw	mtvec,a0
80000fe8:	30569073          	csrw	mtvec,a3
80000fec:	0107a503          	lw	a0,16(a5)
80000ff0:	0147a583          	lw	a1,20(a5)
80000ff4:	0107a603          	lw	a2,16(a5)
80000ff8:	0147a683          	lw	a3,20(a5)
80000ffc:	30551073          	csrw	mtvec,a0
80001000:	30569073          	csrw	mtvec,a3
80001004:	0187a603          	lw	a2,24(a5)
80001008:	01c7a683          	lw	a3,28(a5)
8000100c:	0187a503          	lw	a0,24(a5)
80001010:	01c7a583          	lw	a1,28(a5)
80001014:	30561073          	csrw	mtvec,a2
80001018:	30571073          	csrw	mtvec,a4
8000101c:	800005b7          	lui	a1,0x80000
80001020:	3005a603          	lw	a2,768(a1) # 80000300 <CONFIG_OFFLOAD_WORKQUEUE_PRIORITY+0x80000301>
80001024:	3045a683          	lw	a3,772(a1)
80001028:	00d66733          	or	a4,a2,a3
8000102c:	fe070ae3          	beqz	a4,80001020 <syscall.constprop.2+0xc4>
80001030:	00000613          	li	a2,0
80001034:	30c5a023          	sw	a2,768(a1)
80001038:	00000693          	li	a3,0
8000103c:	30d5a223          	sw	a3,772(a1)
80001040:	0330000f          	fence	rw,rw
80001044:	ff040113          	addi	sp,s0,-16
80001048:	0007a503          	lw	a0,0(a5)
8000104c:	00c12403          	lw	s0,12(sp)
80001050:	0047a583          	lw	a1,4(a5)
80001054:	01010113          	addi	sp,sp,16
80001058:	00008067          	ret

8000105c <putchar>:
8000105c:	800037b7          	lui	a5,0x80003
80001060:	5b878713          	addi	a4,a5,1464 # 800035b8 <CONFIG_OFFLOAD_WORKQUEUE_PRIORITY+0x800035b9>
80001064:	00072583          	lw	a1,0(a4)
80001068:	ff010113          	addi	sp,sp,-16
8000106c:	00812423          	sw	s0,8(sp)
80001070:	00112623          	sw	ra,12(sp)
80001074:	00158613          	addi	a2,a1,1
80001078:	00c72023          	sw	a2,0(a4)
8000107c:	80003737          	lui	a4,0x80003
80001080:	61070693          	addi	a3,a4,1552 # 80003610 <CONFIG_OFFLOAD_WORKQUEUE_PRIORITY+0x80003611>
80001084:	00b686b3          	add	a3,a3,a1
80001088:	00a68023          	sb	a0,0(a3)
8000108c:	00a00693          	li	a3,10
80001090:	5b878413          	addi	s0,a5,1464
80001094:	00d50663          	beq	a0,a3,800010a0 <putchar+0x44>
80001098:	04000793          	li	a5,64
8000109c:	00f61c63          	bne	a2,a5,800010b4 <putchar+0x58>
800010a0:	41f65693          	srai	a3,a2,0x1f
800010a4:	61070513          	addi	a0,a4,1552
800010a8:	00000593          	li	a1,0
800010ac:	eb1ff0ef          	jal	ra,80000f5c <syscall.constprop.2>
800010b0:	00042023          	sw	zero,0(s0)
800010b4:	00c12083          	lw	ra,12(sp)
800010b8:	00000513          	li	a0,0
800010bc:	00812403          	lw	s0,8(sp)
800010c0:	01010113          	addi	sp,sp,16
800010c4:	00008067          	ret

800010c8 <printstr>:
800010c8:	ff010113          	addi	sp,sp,-16
800010cc:	00112623          	sw	ra,12(sp)
800010d0:	00812423          	sw	s0,8(sp)
800010d4:	00050413          	mv	s0,a0
800010d8:	48c000ef          	jal	ra,80001564 <strlen>
800010dc:	00050613          	mv	a2,a0
800010e0:	00c12083          	lw	ra,12(sp)
800010e4:	00040513          	mv	a0,s0
800010e8:	00812403          	lw	s0,8(sp)
800010ec:	00000693          	li	a3,0
800010f0:	00000593          	li	a1,0
800010f4:	01010113          	addi	sp,sp,16
800010f8:	e65ff06f          	j	80000f5c <syscall.constprop.2>

800010fc <strnlen>:
800010fc:	00b505b3          	add	a1,a0,a1
80001100:	00050793          	mv	a5,a0
80001104:	00b78663          	beq	a5,a1,80001110 <strnlen+0x14>
80001108:	0007c703          	lbu	a4,0(a5)
8000110c:	00071663          	bnez	a4,80001118 <strnlen+0x1c>
80001110:	40a78533          	sub	a0,a5,a0
80001114:	00008067          	ret
80001118:	00178793          	addi	a5,a5,1
8000111c:	fe9ff06f          	j	80001104 <strnlen+0x8>

80001120 <vprintfmt.constprop.0>:
80001120:	eb010113          	addi	sp,sp,-336
80001124:	13612823          	sw	s6,304(sp)
80001128:	80003b37          	lui	s6,0x80003
8000112c:	0b0b0793          	addi	a5,s6,176 # 800030b0 <CONFIG_OFFLOAD_WORKQUEUE_PRIORITY+0x800030b1>
80001130:	14812423          	sw	s0,328(sp)
80001134:	13312e23          	sw	s3,316(sp)
80001138:	13512a23          	sw	s5,308(sp)
8000113c:	13712623          	sw	s7,300(sp)
80001140:	14112623          	sw	ra,332(sp)
80001144:	14912223          	sw	s1,324(sp)
80001148:	15212023          	sw	s2,320(sp)
8000114c:	13412c23          	sw	s4,312(sp)
80001150:	13812423          	sw	s8,296(sp)
80001154:	13912223          	sw	s9,292(sp)
80001158:	13a12023          	sw	s10,288(sp)
8000115c:	11b12e23          	sw	s11,284(sp)
80001160:	00050993          	mv	s3,a0
80001164:	00058413          	mv	s0,a1
80001168:	06f00b93          	li	s7,111
8000116c:	03000a93          	li	s5,48
80001170:	00f12623          	sw	a5,12(sp)
80001174:	02500493          	li	s1,37
80001178:	0009c503          	lbu	a0,0(s3)
8000117c:	08951063          	bne	a0,s1,800011fc <vprintfmt.constprop.0+0xdc>
80001180:	00198493          	addi	s1,s3,1
80001184:	fff00d13          	li	s10,-1
80001188:	00048713          	mv	a4,s1
8000118c:	02000a13          	li	s4,32
80001190:	000d0913          	mv	s2,s10
80001194:	00000793          	li	a5,0
80001198:	03900593          	li	a1,57
8000119c:	06400813          	li	a6,100
800011a0:	06c00893          	li	a7,108
800011a4:	03100313          	li	t1,49
800011a8:	00a00e13          	li	t3,10
800011ac:	00900e93          	li	t4,9
800011b0:	02a00693          	li	a3,42
800011b4:	02e00f13          	li	t5,46
800011b8:	02d00613          	li	a2,45
800011bc:	02300f93          	li	t6,35
800011c0:	00074503          	lbu	a0,0(a4)
800011c4:	00170993          	addi	s3,a4,1
800011c8:	06a5e463          	bltu	a1,a0,80001230 <vprintfmt.constprop.0+0x110>
800011cc:	10657463          	bleu	t1,a0,800012d4 <vprintfmt.constprop.0+0x1b4>
800011d0:	12d50463          	beq	a0,a3,800012f8 <vprintfmt.constprop.0+0x1d8>
800011d4:	04a6e463          	bltu	a3,a0,8000121c <vprintfmt.constprop.0+0xfc>
800011d8:	03f50e63          	beq	a0,t6,80001214 <vprintfmt.constprop.0+0xf4>
800011dc:	02500793          	li	a5,37
800011e0:	2ef50c63          	beq	a0,a5,800014d8 <vprintfmt.constprop.0+0x3b8>
800011e4:	00000593          	li	a1,0
800011e8:	02500513          	li	a0,37
800011ec:	e71ff0ef          	jal	ra,8000105c <putchar>
800011f0:	00040c93          	mv	s9,s0
800011f4:	00048993          	mv	s3,s1
800011f8:	0600006f          	j	80001258 <vprintfmt.constprop.0+0x138>
800011fc:	2e050663          	beqz	a0,800014e8 <vprintfmt.constprop.0+0x3c8>
80001200:	00000593          	li	a1,0
80001204:	00198993          	addi	s3,s3,1
80001208:	e55ff0ef          	jal	ra,8000105c <putchar>
8000120c:	f6dff06f          	j	80001178 <vprintfmt.constprop.0+0x58>
80001210:	000a8a13          	mv	s4,s5
80001214:	00098713          	mv	a4,s3
80001218:	fa9ff06f          	j	800011c0 <vprintfmt.constprop.0+0xa0>
8000121c:	0fe50a63          	beq	a0,t5,80001310 <vprintfmt.constprop.0+0x1f0>
80001220:	ff5508e3          	beq	a0,s5,80001210 <vprintfmt.constprop.0+0xf0>
80001224:	fcc510e3          	bne	a0,a2,800011e4 <vprintfmt.constprop.0+0xc4>
80001228:	00060a13          	mv	s4,a2
8000122c:	fe9ff06f          	j	80001214 <vprintfmt.constprop.0+0xf4>
80001230:	25750863          	beq	a0,s7,80001480 <vprintfmt.constprop.0+0x360>
80001234:	02abe663          	bltu	s7,a0,80001260 <vprintfmt.constprop.0+0x140>
80001238:	19050a63          	beq	a0,a6,800013cc <vprintfmt.constprop.0+0x2ac>
8000123c:	0f150063          	beq	a0,a7,8000131c <vprintfmt.constprop.0+0x1fc>
80001240:	06300793          	li	a5,99
80001244:	faf510e3          	bne	a0,a5,800011e4 <vprintfmt.constprop.0+0xc4>
80001248:	00042503          	lw	a0,0(s0)
8000124c:	00000593          	li	a1,0
80001250:	00440c93          	addi	s9,s0,4
80001254:	e09ff0ef          	jal	ra,8000105c <putchar>
80001258:	000c8413          	mv	s0,s9
8000125c:	f19ff06f          	j	80001174 <vprintfmt.constprop.0+0x54>
80001260:	07300713          	li	a4,115
80001264:	0ce50063          	beq	a0,a4,80001324 <vprintfmt.constprop.0+0x204>
80001268:	02a76c63          	bltu	a4,a0,800012a0 <vprintfmt.constprop.0+0x180>
8000126c:	07000793          	li	a5,112
80001270:	f6f51ae3          	bne	a0,a5,800011e4 <vprintfmt.constprop.0+0xc4>
80001274:	00000593          	li	a1,0
80001278:	000a8513          	mv	a0,s5
8000127c:	de1ff0ef          	jal	ra,8000105c <putchar>
80001280:	00000593          	li	a1,0
80001284:	07800513          	li	a0,120
80001288:	dd5ff0ef          	jal	ra,8000105c <putchar>
8000128c:	01000b13          	li	s6,16
80001290:	00440c93          	addi	s9,s0,4
80001294:	00042483          	lw	s1,0(s0)
80001298:	00000413          	li	s0,0
8000129c:	1700006f          	j	8000140c <vprintfmt.constprop.0+0x2ec>
800012a0:	07500713          	li	a4,117
800012a4:	1ce50a63          	beq	a0,a4,80001478 <vprintfmt.constprop.0+0x358>
800012a8:	07800693          	li	a3,120
800012ac:	01000b13          	li	s6,16
800012b0:	f2d51ae3          	bne	a0,a3,800011e4 <vprintfmt.constprop.0+0xc4>
800012b4:	00100693          	li	a3,1
800012b8:	fcf6dce3          	ble	a5,a3,80001290 <vprintfmt.constprop.0+0x170>
800012bc:	00740413          	addi	s0,s0,7
800012c0:	ff847413          	andi	s0,s0,-8
800012c4:	00840c93          	addi	s9,s0,8
800012c8:	00042483          	lw	s1,0(s0)
800012cc:	00442403          	lw	s0,4(s0)
800012d0:	13c0006f          	j	8000140c <vprintfmt.constprop.0+0x2ec>
800012d4:	00000d13          	li	s10,0
800012d8:	03cd0d33          	mul	s10,s10,t3
800012dc:	00ad0533          	add	a0,s10,a0
800012e0:	fd050d13          	addi	s10,a0,-48
800012e4:	0009c503          	lbu	a0,0(s3)
800012e8:	fd050713          	addi	a4,a0,-48
800012ec:	00eeea63          	bltu	t4,a4,80001300 <vprintfmt.constprop.0+0x1e0>
800012f0:	00198993          	addi	s3,s3,1
800012f4:	fe5ff06f          	j	800012d8 <vprintfmt.constprop.0+0x1b8>
800012f8:	00042d03          	lw	s10,0(s0)
800012fc:	00440413          	addi	s0,s0,4
80001300:	f0095ae3          	bgez	s2,80001214 <vprintfmt.constprop.0+0xf4>
80001304:	000d0913          	mv	s2,s10
80001308:	fff00d13          	li	s10,-1
8000130c:	f09ff06f          	j	80001214 <vprintfmt.constprop.0+0xf4>
80001310:	f00952e3          	bgez	s2,80001214 <vprintfmt.constprop.0+0xf4>
80001314:	00000913          	li	s2,0
80001318:	efdff06f          	j	80001214 <vprintfmt.constprop.0+0xf4>
8000131c:	00178793          	addi	a5,a5,1
80001320:	ef5ff06f          	j	80001214 <vprintfmt.constprop.0+0xf4>
80001324:	00042483          	lw	s1,0(s0)
80001328:	00440c93          	addi	s9,s0,4
8000132c:	00049463          	bnez	s1,80001334 <vprintfmt.constprop.0+0x214>
80001330:	00c12483          	lw	s1,12(sp)
80001334:	03205a63          	blez	s2,80001368 <vprintfmt.constprop.0+0x248>
80001338:	02d00793          	li	a5,45
8000133c:	02fa0663          	beq	s4,a5,80001368 <vprintfmt.constprop.0+0x248>
80001340:	000d0593          	mv	a1,s10
80001344:	00048513          	mv	a0,s1
80001348:	db5ff0ef          	jal	ra,800010fc <strnlen>
8000134c:	40a90933          	sub	s2,s2,a0
80001350:	00090413          	mv	s0,s2
80001354:	04804463          	bgtz	s0,8000139c <vprintfmt.constprop.0+0x27c>
80001358:	00090793          	mv	a5,s2
8000135c:	00095463          	bgez	s2,80001364 <vprintfmt.constprop.0+0x244>
80001360:	00000793          	li	a5,0
80001364:	40f90933          	sub	s2,s2,a5
80001368:	00048a13          	mv	s4,s1
8000136c:	fff00d93          	li	s11,-1
80001370:	000a4503          	lbu	a0,0(s4)
80001374:	41490433          	sub	s0,s2,s4
80001378:	00848433          	add	s0,s1,s0
8000137c:	02051a63          	bnez	a0,800013b0 <vprintfmt.constprop.0+0x290>
80001380:	02000493          	li	s1,32
80001384:	ec805ae3          	blez	s0,80001258 <vprintfmt.constprop.0+0x138>
80001388:	00000593          	li	a1,0
8000138c:	00048513          	mv	a0,s1
80001390:	ccdff0ef          	jal	ra,8000105c <putchar>
80001394:	fff40413          	addi	s0,s0,-1
80001398:	fedff06f          	j	80001384 <vprintfmt.constprop.0+0x264>
8000139c:	00000593          	li	a1,0
800013a0:	000a0513          	mv	a0,s4
800013a4:	cb9ff0ef          	jal	ra,8000105c <putchar>
800013a8:	fff40413          	addi	s0,s0,-1
800013ac:	fa9ff06f          	j	80001354 <vprintfmt.constprop.0+0x234>
800013b0:	000d4663          	bltz	s10,800013bc <vprintfmt.constprop.0+0x29c>
800013b4:	fffd0d13          	addi	s10,s10,-1
800013b8:	fdbd04e3          	beq	s10,s11,80001380 <vprintfmt.constprop.0+0x260>
800013bc:	00000593          	li	a1,0
800013c0:	c9dff0ef          	jal	ra,8000105c <putchar>
800013c4:	001a0a13          	addi	s4,s4,1
800013c8:	fa9ff06f          	j	80001370 <vprintfmt.constprop.0+0x250>
800013cc:	00100713          	li	a4,1
800013d0:	08f75c63          	ble	a5,a4,80001468 <vprintfmt.constprop.0+0x348>
800013d4:	00740413          	addi	s0,s0,7
800013d8:	ff847413          	andi	s0,s0,-8
800013dc:	00840c93          	addi	s9,s0,8
800013e0:	00042483          	lw	s1,0(s0)
800013e4:	00442403          	lw	s0,4(s0)
800013e8:	00a00b13          	li	s6,10
800013ec:	02045063          	bgez	s0,8000140c <vprintfmt.constprop.0+0x2ec>
800013f0:	00000593          	li	a1,0
800013f4:	02d00513          	li	a0,45
800013f8:	c65ff0ef          	jal	ra,8000105c <putchar>
800013fc:	409004b3          	neg	s1,s1
80001400:	009037b3          	snez	a5,s1
80001404:	40800433          	neg	s0,s0
80001408:	40f40433          	sub	s0,s0,a5
8000140c:	00000d13          	li	s10,0
80001410:	41fb5c13          	srai	s8,s6,0x1f
80001414:	001d0d13          	addi	s10,s10,1
80001418:	01010793          	addi	a5,sp,16
8000141c:	002d1d93          	slli	s11,s10,0x2
80001420:	000b0613          	mv	a2,s6
80001424:	000c0693          	mv	a3,s8
80001428:	00048513          	mv	a0,s1
8000142c:	00040593          	mv	a1,s0
80001430:	01b78db3          	add	s11,a5,s11
80001434:	d58ff0ef          	jal	ra,8000098c <__umoddi3>
80001438:	feadae23          	sw	a0,-4(s11)
8000143c:	05846e63          	bltu	s0,s8,80001498 <vprintfmt.constprop.0+0x378>
80001440:	008c1463          	bne	s8,s0,80001448 <vprintfmt.constprop.0+0x328>
80001444:	0564ea63          	bltu	s1,s6,80001498 <vprintfmt.constprop.0+0x378>
80001448:	00048513          	mv	a0,s1
8000144c:	00040593          	mv	a1,s0
80001450:	000b0613          	mv	a2,s6
80001454:	000c0693          	mv	a3,s8
80001458:	8c0ff0ef          	jal	ra,80000518 <__udivdi3>
8000145c:	00050493          	mv	s1,a0
80001460:	00058413          	mv	s0,a1
80001464:	fb1ff06f          	j	80001414 <vprintfmt.constprop.0+0x2f4>
80001468:	00042483          	lw	s1,0(s0)
8000146c:	00440c93          	addi	s9,s0,4
80001470:	41f4d413          	srai	s0,s1,0x1f
80001474:	f75ff06f          	j	800013e8 <vprintfmt.constprop.0+0x2c8>
80001478:	00a00b13          	li	s6,10
8000147c:	e39ff06f          	j	800012b4 <vprintfmt.constprop.0+0x194>
80001480:	00800b13          	li	s6,8
80001484:	e31ff06f          	j	800012b4 <vprintfmt.constprop.0+0x194>
80001488:	00000593          	li	a1,0
8000148c:	000a0513          	mv	a0,s4
80001490:	bcdff0ef          	jal	ra,8000105c <putchar>
80001494:	fff90913          	addi	s2,s2,-1
80001498:	ff2d48e3          	blt	s10,s2,80001488 <vprintfmt.constprop.0+0x368>
8000149c:	00000413          	li	s0,0
800014a0:	ffc00493          	li	s1,-4
800014a4:	00900913          	li	s2,9
800014a8:	029407b3          	mul	a5,s0,s1
800014ac:	00fd87b3          	add	a5,s11,a5
800014b0:	ffc7a503          	lw	a0,-4(a5)
800014b4:	000a8793          	mv	a5,s5
800014b8:	00a97463          	bleu	a0,s2,800014c0 <vprintfmt.constprop.0+0x3a0>
800014bc:	05700793          	li	a5,87
800014c0:	00000593          	li	a1,0
800014c4:	00f50533          	add	a0,a0,a5
800014c8:	00140413          	addi	s0,s0,1
800014cc:	b91ff0ef          	jal	ra,8000105c <putchar>
800014d0:	fc8d1ce3          	bne	s10,s0,800014a8 <vprintfmt.constprop.0+0x388>
800014d4:	d85ff06f          	j	80001258 <vprintfmt.constprop.0+0x138>
800014d8:	00000593          	li	a1,0
800014dc:	b81ff0ef          	jal	ra,8000105c <putchar>
800014e0:	00040c93          	mv	s9,s0
800014e4:	d75ff06f          	j	80001258 <vprintfmt.constprop.0+0x138>
800014e8:	14c12083          	lw	ra,332(sp)
800014ec:	14812403          	lw	s0,328(sp)
800014f0:	14412483          	lw	s1,324(sp)
800014f4:	14012903          	lw	s2,320(sp)
800014f8:	13c12983          	lw	s3,316(sp)
800014fc:	13812a03          	lw	s4,312(sp)
80001500:	13412a83          	lw	s5,308(sp)
80001504:	13012b03          	lw	s6,304(sp)
80001508:	12c12b83          	lw	s7,300(sp)
8000150c:	12812c03          	lw	s8,296(sp)
80001510:	12412c83          	lw	s9,292(sp)
80001514:	12012d03          	lw	s10,288(sp)
80001518:	11c12d83          	lw	s11,284(sp)
8000151c:	15010113          	addi	sp,sp,336
80001520:	00008067          	ret

80001524 <printfsvr>:
80001524:	fc010113          	addi	sp,sp,-64
80001528:	02b12223          	sw	a1,36(sp)
8000152c:	02410593          	addi	a1,sp,36
80001530:	00112e23          	sw	ra,28(sp)
80001534:	02c12423          	sw	a2,40(sp)
80001538:	02d12623          	sw	a3,44(sp)
8000153c:	02e12823          	sw	a4,48(sp)
80001540:	02f12a23          	sw	a5,52(sp)
80001544:	03012c23          	sw	a6,56(sp)
80001548:	03112e23          	sw	a7,60(sp)
8000154c:	00b12623          	sw	a1,12(sp)
80001550:	bd1ff0ef          	jal	ra,80001120 <vprintfmt.constprop.0>
80001554:	01c12083          	lw	ra,28(sp)
80001558:	00000513          	li	a0,0
8000155c:	04010113          	addi	sp,sp,64
80001560:	00008067          	ret

80001564 <strlen>:
80001564:	00050713          	mv	a4,a0
80001568:	00050793          	mv	a5,a0
8000156c:	0007c683          	lbu	a3,0(a5)
80001570:	40e78533          	sub	a0,a5,a4
80001574:	00069463          	bnez	a3,8000157c <strlen+0x18>
80001578:	00008067          	ret
8000157c:	00178793          	addi	a5,a5,1
80001580:	fedff06f          	j	8000156c <strlen+0x8>

80001584 <strcmp>:
80001584:	00054783          	lbu	a5,0(a0)
80001588:	0005c703          	lbu	a4,0(a1)
8000158c:	00e79663          	bne	a5,a4,80001598 <strcmp+0x14>
80001590:	00079863          	bnez	a5,800015a0 <strcmp+0x1c>
80001594:	00078713          	mv	a4,a5
80001598:	40e78533          	sub	a0,a5,a4
8000159c:	00008067          	ret
800015a0:	00150513          	addi	a0,a0,1
800015a4:	00158593          	addi	a1,a1,1
800015a8:	fddff06f          	j	80001584 <strcmp>

800015ac <memset>:
800015ac:	0ff5f813          	andi	a6,a1,255
800015b0:	00050793          	mv	a5,a0
800015b4:	0037f713          	andi	a4,a5,3
800015b8:	04071263          	bnez	a4,800015fc <memset+0x50>
800015bc:	0ff5f593          	andi	a1,a1,255
800015c0:	00859713          	slli	a4,a1,0x8
800015c4:	00e5e5b3          	or	a1,a1,a4
800015c8:	01059713          	slli	a4,a1,0x10
800015cc:	00e5e5b3          	or	a1,a1,a4
800015d0:	00300893          	li	a7,3
800015d4:	00078713          	mv	a4,a5
800015d8:	40e606b3          	sub	a3,a2,a4
800015dc:	00d786b3          	add	a3,a5,a3
800015e0:	02d8e863          	bltu	a7,a3,80001610 <memset+0x64>
800015e4:	ffc67713          	andi	a4,a2,-4
800015e8:	00e787b3          	add	a5,a5,a4
800015ec:	00367613          	andi	a2,a2,3
800015f0:	00c78633          	add	a2,a5,a2
800015f4:	02c79463          	bne	a5,a2,8000161c <memset+0x70>
800015f8:	00008067          	ret
800015fc:	fe060ee3          	beqz	a2,800015f8 <memset+0x4c>
80001600:	00178793          	addi	a5,a5,1
80001604:	ff078fa3          	sb	a6,-1(a5)
80001608:	fff60613          	addi	a2,a2,-1
8000160c:	fa9ff06f          	j	800015b4 <memset+0x8>
80001610:	00470713          	addi	a4,a4,4
80001614:	feb72e23          	sw	a1,-4(a4)
80001618:	fc1ff06f          	j	800015d8 <memset+0x2c>
8000161c:	00178793          	addi	a5,a5,1
80001620:	ff078fa3          	sb	a6,-1(a5)
80001624:	fd1ff06f          	j	800015f4 <memset+0x48>

80001628 <console_out>:
80001628:	ff010113          	addi	sp,sp,-16
8000162c:	00812423          	sw	s0,8(sp)
80001630:	00912223          	sw	s1,4(sp)
80001634:	80003437          	lui	s0,0x80003
80001638:	00112623          	sw	ra,12(sp)
8000163c:	00a00793          	li	a5,10
80001640:	00050493          	mv	s1,a0
80001644:	5bc40413          	addi	s0,s0,1468 # 800035bc <CONFIG_OFFLOAD_WORKQUEUE_PRIORITY+0x800035bd>
80001648:	00f51c63          	bne	a0,a5,80001660 <console_out+0x38>
8000164c:	00042503          	lw	a0,0(s0)
80001650:	00d00593          	li	a1,13
80001654:	00452783          	lw	a5,4(a0)
80001658:	0047a783          	lw	a5,4(a5)
8000165c:	000780e7          	jalr	a5
80001660:	00042503          	lw	a0,0(s0)
80001664:	0ff4f593          	andi	a1,s1,255
80001668:	00452783          	lw	a5,4(a0)
8000166c:	0047a783          	lw	a5,4(a5)
80001670:	000780e7          	jalr	a5
80001674:	00c12083          	lw	ra,12(sp)
80001678:	00048513          	mv	a0,s1
8000167c:	00812403          	lw	s0,8(sp)
80001680:	00412483          	lw	s1,4(sp)
80001684:	01010113          	addi	sp,sp,16
80001688:	00008067          	ret

8000168c <uart_console_hook_install>:
8000168c:	80001537          	lui	a0,0x80001
80001690:	62850513          	addi	a0,a0,1576 # 80001628 <CONFIG_OFFLOAD_WORKQUEUE_PRIORITY+0x80001629>
80001694:	4240006f          	j	80001ab8 <__printk_hook_install>

80001698 <uart_console_init>:
80001698:	80003537          	lui	a0,0x80003
8000169c:	ff010113          	addi	sp,sp,-16
800016a0:	09850513          	addi	a0,a0,152 # 80003098 <CONFIG_OFFLOAD_WORKQUEUE_PRIORITY+0x80003099>
800016a4:	00112623          	sw	ra,12(sp)
800016a8:	499000ef          	jal	ra,80002340 <device_get_binding>
800016ac:	800037b7          	lui	a5,0x80003
800016b0:	5aa7ae23          	sw	a0,1468(a5) # 800035bc <CONFIG_OFFLOAD_WORKQUEUE_PRIORITY+0x800035bd>
800016b4:	fd9ff0ef          	jal	ra,8000168c <uart_console_hook_install>
800016b8:	00c12083          	lw	ra,12(sp)
800016bc:	00000513          	li	a0,0
800016c0:	01010113          	addi	sp,sp,16
800016c4:	00008067          	ret

800016c8 <riscv_machine_timer_irq_handler>:
800016c8:	800037b7          	lui	a5,0x80003
800016cc:	5787a503          	lw	a0,1400(a5) # 80003578 <CONFIG_OFFLOAD_WORKQUEUE_PRIORITY+0x80003579>
800016d0:	ff010113          	addi	sp,sp,-16
800016d4:	00112623          	sw	ra,12(sp)
800016d8:	194010ef          	jal	ra,8000286c <_nano_sys_clock_tick_announce>
800016dc:	00700513          	li	a0,7
800016e0:	039000ef          	jal	ra,80001f18 <_arch_irq_disable>
800016e4:	0200c7b7          	lui	a5,0x200c
800016e8:	ff87a703          	lw	a4,-8(a5) # 200bff8 <CONFIG_RISCV_ROM_SIZE+0x140bff8>
800016ec:	ffc7a603          	lw	a2,-4(a5)
800016f0:	800037b7          	lui	a5,0x80003
800016f4:	57c7a783          	lw	a5,1404(a5) # 8000357c <CONFIG_OFFLOAD_WORKQUEUE_PRIORITY+0x8000357d>
800016f8:	00c12083          	lw	ra,12(sp)
800016fc:	00700513          	li	a0,7
80001700:	41f7d693          	srai	a3,a5,0x1f
80001704:	00e78733          	add	a4,a5,a4
80001708:	00c686b3          	add	a3,a3,a2
8000170c:	00f737b3          	sltu	a5,a4,a5
80001710:	00d787b3          	add	a5,a5,a3
80001714:	020046b7          	lui	a3,0x2004
80001718:	00e6a023          	sw	a4,0(a3) # 2004000 <CONFIG_RISCV_ROM_SIZE+0x1404000>
8000171c:	00f6a223          	sw	a5,4(a3)
80001720:	01010113          	addi	sp,sp,16
80001724:	7d40006f          	j	80001ef8 <_arch_irq_enable>

80001728 <_sys_clock_driver_init>:
80001728:	ff010113          	addi	sp,sp,-16
8000172c:	00000593          	li	a1,0
80001730:	00700513          	li	a0,7
80001734:	00112623          	sw	ra,12(sp)
80001738:	194000ef          	jal	ra,800018cc <riscv_plic_set_priority>
8000173c:	00700513          	li	a0,7
80001740:	7d8000ef          	jal	ra,80001f18 <_arch_irq_disable>
80001744:	0200c7b7          	lui	a5,0x200c
80001748:	ff87a703          	lw	a4,-8(a5) # 200bff8 <CONFIG_RISCV_ROM_SIZE+0x140bff8>
8000174c:	ffc7a603          	lw	a2,-4(a5)
80001750:	800037b7          	lui	a5,0x80003
80001754:	57c7a783          	lw	a5,1404(a5) # 8000357c <CONFIG_OFFLOAD_WORKQUEUE_PRIORITY+0x8000357d>
80001758:	00700513          	li	a0,7
8000175c:	00e78733          	add	a4,a5,a4
80001760:	41f7d693          	srai	a3,a5,0x1f
80001764:	00c686b3          	add	a3,a3,a2
80001768:	00f737b3          	sltu	a5,a4,a5
8000176c:	00d787b3          	add	a5,a5,a3
80001770:	020046b7          	lui	a3,0x2004
80001774:	00e6a023          	sw	a4,0(a3) # 2004000 <CONFIG_RISCV_ROM_SIZE+0x1404000>
80001778:	00f6a223          	sw	a5,4(a3)
8000177c:	77c000ef          	jal	ra,80001ef8 <_arch_irq_enable>
80001780:	00c12083          	lw	ra,12(sp)
80001784:	00000513          	li	a0,0
80001788:	01010113          	addi	sp,sp,16
8000178c:	00008067          	ret

80001790 <plic_fe310_irq_handler>:
80001790:	ff010113          	addi	sp,sp,-16
80001794:	0c2007b7          	lui	a5,0xc200
80001798:	00812423          	sw	s0,8(sp)
8000179c:	0047a403          	lw	s0,4(a5) # c200004 <CONFIG_RISCV_ROM_SIZE+0xb600004>
800017a0:	800037b7          	lui	a5,0x80003
800017a4:	00912223          	sw	s1,4(sp)
800017a8:	00112623          	sw	ra,12(sp)
800017ac:	5c87a023          	sw	s0,1472(a5) # 800035c0 <CONFIG_OFFLOAD_WORKQUEUE_PRIORITY+0x800035c1>
800017b0:	fff40693          	addi	a3,s0,-1
800017b4:	03600713          	li	a4,54
800017b8:	5c078493          	addi	s1,a5,1472
800017bc:	00d77663          	bleu	a3,a4,800017c8 <plic_fe310_irq_handler+0x38>
800017c0:	00000513          	li	a0,0
800017c4:	1dd000ef          	jal	ra,800021a0 <_irq_spurious>
800017c8:	00b40413          	addi	s0,s0,11
800017cc:	800007b7          	lui	a5,0x80000
800017d0:	29078793          	addi	a5,a5,656 # 80000290 <CONFIG_OFFLOAD_WORKQUEUE_PRIORITY+0x80000291>
800017d4:	00341413          	slli	s0,s0,0x3
800017d8:	00f40433          	add	s0,s0,a5
800017dc:	00442783          	lw	a5,4(s0)
800017e0:	00042503          	lw	a0,0(s0)
800017e4:	000780e7          	jalr	a5
800017e8:	0004a703          	lw	a4,0(s1)
800017ec:	00c12083          	lw	ra,12(sp)
800017f0:	0c2007b7          	lui	a5,0xc200
800017f4:	00812403          	lw	s0,8(sp)
800017f8:	00412483          	lw	s1,4(sp)
800017fc:	00e7a223          	sw	a4,4(a5) # c200004 <CONFIG_RISCV_ROM_SIZE+0xb600004>
80001800:	01010113          	addi	sp,sp,16
80001804:	00008067          	ret

80001808 <plic_fe310_init>:
80001808:	ff010113          	addi	sp,sp,-16
8000180c:	0c0027b7          	lui	a5,0xc002
80001810:	00112623          	sw	ra,12(sp)
80001814:	0007a023          	sw	zero,0(a5) # c002000 <CONFIG_RISCV_ROM_SIZE+0xb402000>
80001818:	0007a223          	sw	zero,4(a5)
8000181c:	0c0007b7          	lui	a5,0xc000
80001820:	0e078713          	addi	a4,a5,224 # c0000e0 <CONFIG_RISCV_ROM_SIZE+0xb4000e0>
80001824:	0007a023          	sw	zero,0(a5)
80001828:	00478793          	addi	a5,a5,4
8000182c:	fee79ce3          	bne	a5,a4,80001824 <plic_fe310_init+0x1c>
80001830:	0c2007b7          	lui	a5,0xc200
80001834:	00b00513          	li	a0,11
80001838:	0007a023          	sw	zero,0(a5) # c200000 <CONFIG_RISCV_ROM_SIZE+0xb600000>
8000183c:	6bc000ef          	jal	ra,80001ef8 <_arch_irq_enable>
80001840:	00c12083          	lw	ra,12(sp)
80001844:	00000513          	li	a0,0
80001848:	01010113          	addi	sp,sp,16
8000184c:	00008067          	ret

80001850 <riscv_plic_irq_enable>:
80001850:	ff550693          	addi	a3,a0,-11
80001854:	00800793          	li	a5,8
80001858:	3007b7f3          	csrrc	a5,mstatus,a5
8000185c:	0056d713          	srli	a4,a3,0x5
80001860:	0c002637          	lui	a2,0xc002
80001864:	00271713          	slli	a4,a4,0x2
80001868:	00c70733          	add	a4,a4,a2
8000186c:	00072603          	lw	a2,0(a4)
80001870:	00100513          	li	a0,1
80001874:	00d51533          	sll	a0,a0,a3
80001878:	00c56533          	or	a0,a0,a2
8000187c:	00a72023          	sw	a0,0(a4)
80001880:	0087f793          	andi	a5,a5,8
80001884:	3007a7f3          	csrrs	a5,mstatus,a5
80001888:	00008067          	ret

8000188c <riscv_plic_irq_disable>:
8000188c:	ff550693          	addi	a3,a0,-11
80001890:	00800793          	li	a5,8
80001894:	3007b7f3          	csrrc	a5,mstatus,a5
80001898:	0056d713          	srli	a4,a3,0x5
8000189c:	0c002637          	lui	a2,0xc002
800018a0:	00271713          	slli	a4,a4,0x2
800018a4:	00c70733          	add	a4,a4,a2
800018a8:	00072603          	lw	a2,0(a4)
800018ac:	00100513          	li	a0,1
800018b0:	00d51533          	sll	a0,a0,a3
800018b4:	fff54513          	not	a0,a0
800018b8:	00c57533          	and	a0,a0,a2
800018bc:	00a72023          	sw	a0,0(a4)
800018c0:	0087f793          	andi	a5,a5,8
800018c4:	3007a7f3          	csrrs	a5,mstatus,a5
800018c8:	00008067          	ret

800018cc <riscv_plic_set_priority>:
800018cc:	00b00793          	li	a5,11
800018d0:	02a7f263          	bleu	a0,a5,800018f4 <riscv_plic_set_priority+0x28>
800018d4:	00700793          	li	a5,7
800018d8:	00b7f463          	bleu	a1,a5,800018e0 <riscv_plic_set_priority+0x14>
800018dc:	00078593          	mv	a1,a5
800018e0:	00251513          	slli	a0,a0,0x2
800018e4:	fd450513          	addi	a0,a0,-44
800018e8:	0c0007b7          	lui	a5,0xc000
800018ec:	00f50533          	add	a0,a0,a5
800018f0:	00b52023          	sw	a1,0(a0)
800018f4:	00008067          	ret

800018f8 <riscv_plic_get_irq>:
800018f8:	800037b7          	lui	a5,0x80003
800018fc:	5c07a503          	lw	a0,1472(a5) # 800035c0 <CONFIG_OFFLOAD_WORKQUEUE_PRIORITY+0x800035c1>
80001900:	00008067          	ret

80001904 <plic_fe310_irq_handler_fast>:
80001904:	ff010113          	addi	sp,sp,-16
80001908:	00912223          	sw	s1,4(sp)
8000190c:	0c2004b7          	lui	s1,0xc200
80001910:	00812423          	sw	s0,8(sp)
80001914:	0044a403          	lw	s0,4(s1) # c200004 <CONFIG_RISCV_ROM_SIZE+0xb600004>
80001918:	800037b7          	lui	a5,0x80003
8000191c:	00112623          	sw	ra,12(sp)
80001920:	5c87a023          	sw	s0,1472(a5) # 800035c0 <CONFIG_OFFLOAD_WORKQUEUE_PRIORITY+0x800035c1>
80001924:	800037b7          	lui	a5,0x80003
80001928:	5687a783          	lw	a5,1384(a5) # 80003568 <CONFIG_OFFLOAD_WORKQUEUE_PRIORITY+0x80003569>
8000192c:	00040513          	mv	a0,s0
80001930:	000780e7          	jalr	a5
80001934:	00c12083          	lw	ra,12(sp)
80001938:	0084a223          	sw	s0,4(s1)
8000193c:	00812403          	lw	s0,8(sp)
80001940:	00412483          	lw	s1,4(sp)
80001944:	01010113          	addi	sp,sp,16
80001948:	00008067          	ret

8000194c <_nop_char_out>:
8000194c:	00000513          	li	a0,0
80001950:	00008067          	ret

80001954 <char_out>:
80001954:	0005a783          	lw	a5,0(a1)
80001958:	00178793          	addi	a5,a5,1
8000195c:	00f5a023          	sw	a5,0(a1)
80001960:	800037b7          	lui	a5,0x80003
80001964:	56c7a303          	lw	t1,1388(a5) # 8000356c <CONFIG_OFFLOAD_WORKQUEUE_PRIORITY+0x8000356d>
80001968:	00030067          	jr	t1

8000196c <_printk_dec_ulong>:
8000196c:	fb010113          	addi	sp,sp,-80
80001970:	04812423          	sw	s0,72(sp)
80001974:	03412c23          	sw	s4,56(sp)
80001978:	03512a23          	sw	s5,52(sp)
8000197c:	03612823          	sw	s6,48(sp)
80001980:	00100793          	li	a5,1
80001984:	04112623          	sw	ra,76(sp)
80001988:	04912223          	sw	s1,68(sp)
8000198c:	05212023          	sw	s2,64(sp)
80001990:	03312e23          	sw	s3,60(sp)
80001994:	03712623          	sw	s7,44(sp)
80001998:	03812423          	sw	s8,40(sp)
8000199c:	03912223          	sw	s9,36(sp)
800019a0:	03a12023          	sw	s10,32(sp)
800019a4:	01b12e23          	sw	s11,28(sp)
800019a8:	00050a13          	mv	s4,a0
800019ac:	00058a93          	mv	s5,a1
800019b0:	00068b13          	mv	s6,a3
800019b4:	00078413          	mv	s0,a5
800019b8:	00e05463          	blez	a4,800019c0 <_printk_dec_ulong+0x54>
800019bc:	00070413          	mv	s0,a4
800019c0:	02000c93          	li	s9,32
800019c4:	00fb1463          	bne	s6,a5,800019cc <_printk_dec_ulong+0x60>
800019c8:	03000c93          	li	s9,48
800019cc:	00100913          	li	s2,1
800019d0:	3b9ad9b7          	lui	s3,0x3b9ad
800019d4:	00060493          	mv	s1,a2
800019d8:	00a00d13          	li	s10,10
800019dc:	00000713          	li	a4,0
800019e0:	9ff98993          	addi	s3,s3,-1537 # 3b9ac9ff <CONFIG_RISCV_RAM_BASE_ADDR+0x1b9ac9ff>
800019e4:	00090b93          	mv	s7,s2
800019e8:	00200d93          	li	s11,2
800019ec:	00198c13          	addi	s8,s3,1
800019f0:	00071463          	bnez	a4,800019f8 <_printk_dec_ulong+0x8c>
800019f4:	0899f663          	bleu	s1,s3,80001a80 <_printk_dec_ulong+0x114>
800019f8:	0384d533          	divu	a0,s1,s8
800019fc:	000a8593          	mv	a1,s5
80001a00:	00190913          	addi	s2,s2,1
80001a04:	03050513          	addi	a0,a0,48
80001a08:	000a00e7          	jalr	s4
80001a0c:	000b8713          	mv	a4,s7
80001a10:	00a00793          	li	a5,10
80001a14:	fffd0d13          	addi	s10,s10,-1
80001a18:	0384f4b3          	remu	s1,s1,s8
80001a1c:	02f9d9b3          	divu	s3,s3,a5
80001a20:	fd7d16e3          	bne	s10,s7,800019ec <_printk_dec_ulong+0x80>
80001a24:	000a8593          	mv	a1,s5
80001a28:	03048513          	addi	a0,s1,48
80001a2c:	000a00e7          	jalr	s4
80001a30:	00300793          	li	a5,3
80001a34:	00fb1863          	bne	s6,a5,80001a44 <_printk_dec_ulong+0xd8>
80001a38:	41240433          	sub	s0,s0,s2
80001a3c:	02000493          	li	s1,32
80001a40:	06804263          	bgtz	s0,80001aa4 <_printk_dec_ulong+0x138>
80001a44:	04c12083          	lw	ra,76(sp)
80001a48:	04812403          	lw	s0,72(sp)
80001a4c:	04412483          	lw	s1,68(sp)
80001a50:	04012903          	lw	s2,64(sp)
80001a54:	03c12983          	lw	s3,60(sp)
80001a58:	03812a03          	lw	s4,56(sp)
80001a5c:	03412a83          	lw	s5,52(sp)
80001a60:	03012b03          	lw	s6,48(sp)
80001a64:	02c12b83          	lw	s7,44(sp)
80001a68:	02812c03          	lw	s8,40(sp)
80001a6c:	02412c83          	lw	s9,36(sp)
80001a70:	02012d03          	lw	s10,32(sp)
80001a74:	01c12d83          	lw	s11,28(sp)
80001a78:	05010113          	addi	sp,sp,80
80001a7c:	00008067          	ret
80001a80:	f9a448e3          	blt	s0,s10,80001a10 <_printk_dec_ulong+0xa4>
80001a84:	f96de6e3          	bltu	s11,s6,80001a10 <_printk_dec_ulong+0xa4>
80001a88:	000a8593          	mv	a1,s5
80001a8c:	000c8513          	mv	a0,s9
80001a90:	00e12623          	sw	a4,12(sp)
80001a94:	000a00e7          	jalr	s4
80001a98:	00190913          	addi	s2,s2,1
80001a9c:	00c12703          	lw	a4,12(sp)
80001aa0:	f71ff06f          	j	80001a10 <_printk_dec_ulong+0xa4>
80001aa4:	000a8593          	mv	a1,s5
80001aa8:	00048513          	mv	a0,s1
80001aac:	000a00e7          	jalr	s4
80001ab0:	fff40413          	addi	s0,s0,-1
80001ab4:	f8dff06f          	j	80001a40 <_printk_dec_ulong+0xd4>

80001ab8 <__printk_hook_install>:
80001ab8:	800037b7          	lui	a5,0x80003
80001abc:	56a7a623          	sw	a0,1388(a5) # 8000356c <CONFIG_OFFLOAD_WORKQUEUE_PRIORITY+0x8000356d>
80001ac0:	00008067          	ret

80001ac4 <_vprintk>:
80001ac4:	fb010113          	addi	sp,sp,-80
80001ac8:	04812423          	sw	s0,72(sp)
80001acc:	04912223          	sw	s1,68(sp)
80001ad0:	05212023          	sw	s2,64(sp)
80001ad4:	03312e23          	sw	s3,60(sp)
80001ad8:	03412c23          	sw	s4,56(sp)
80001adc:	03512a23          	sw	s5,52(sp)
80001ae0:	03612823          	sw	s6,48(sp)
80001ae4:	03712623          	sw	s7,44(sp)
80001ae8:	03912223          	sw	s9,36(sp)
80001aec:	03a12023          	sw	s10,32(sp)
80001af0:	04112623          	sw	ra,76(sp)
80001af4:	03812423          	sw	s8,40(sp)
80001af8:	01b12e23          	sw	s11,28(sp)
80001afc:	00050413          	mv	s0,a0
80001b00:	00058493          	mv	s1,a1
80001b04:	00060b93          	mv	s7,a2
80001b08:	00068d13          	mv	s10,a3
80001b0c:	00000a93          	li	s5,0
80001b10:	fff00913          	li	s2,-1
80001b14:	00000993          	li	s3,0
80001b18:	00000c93          	li	s9,0
80001b1c:	00100a13          	li	s4,1
80001b20:	03000b13          	li	s6,48
80001b24:	000bc503          	lbu	a0,0(s7)
80001b28:	04051063          	bnez	a0,80001b68 <_vprintk+0xa4>
80001b2c:	04c12083          	lw	ra,76(sp)
80001b30:	04812403          	lw	s0,72(sp)
80001b34:	04412483          	lw	s1,68(sp)
80001b38:	04012903          	lw	s2,64(sp)
80001b3c:	03c12983          	lw	s3,60(sp)
80001b40:	03812a03          	lw	s4,56(sp)
80001b44:	03412a83          	lw	s5,52(sp)
80001b48:	03012b03          	lw	s6,48(sp)
80001b4c:	02c12b83          	lw	s7,44(sp)
80001b50:	02812c03          	lw	s8,40(sp)
80001b54:	02412c83          	lw	s9,36(sp)
80001b58:	02012d03          	lw	s10,32(sp)
80001b5c:	01c12d83          	lw	s11,28(sp)
80001b60:	05010113          	addi	sp,sp,80
80001b64:	00008067          	ret
80001b68:	000c9e63          	bnez	s9,80001b84 <_vprintk+0xc0>
80001b6c:	02500693          	li	a3,37
80001b70:	2cd50e63          	beq	a0,a3,80001e4c <_vprintk+0x388>
80001b74:	00048593          	mv	a1,s1
80001b78:	000400e7          	jalr	s0
80001b7c:	001b8b93          	addi	s7,s7,1
80001b80:	fa5ff06f          	j	80001b24 <_vprintk+0x60>
80001b84:	06400693          	li	a3,100
80001b88:	10d50263          	beq	a0,a3,80001c8c <_vprintk+0x1c8>
80001b8c:	04a6ee63          	bltu	a3,a0,80001be8 <_vprintk+0x124>
80001b90:	03900693          	li	a3,57
80001b94:	02a6e663          	bltu	a3,a0,80001bc0 <_vprintk+0xfc>
80001b98:	03100693          	li	a3,49
80001b9c:	0cd57863          	bleu	a3,a0,80001c6c <_vprintk+0x1a8>
80001ba0:	02d00693          	li	a3,45
80001ba4:	0ad50463          	beq	a0,a3,80001c4c <_vprintk+0x188>
80001ba8:	0b650663          	beq	a0,s6,80001c54 <_vprintk+0x190>
80001bac:	02500713          	li	a4,37
80001bb0:	02e51063          	bne	a0,a4,80001bd0 <_vprintk+0x10c>
80001bb4:	00048593          	mv	a1,s1
80001bb8:	000400e7          	jalr	s0
80001bbc:	1100006f          	j	80001ccc <_vprintk+0x208>
80001bc0:	05800693          	li	a3,88
80001bc4:	16d50463          	beq	a0,a3,80001d2c <_vprintk+0x268>
80001bc8:	06300713          	li	a4,99
80001bcc:	26e50463          	beq	a0,a4,80001e34 <_vprintk+0x370>
80001bd0:	00048593          	mv	a1,s1
80001bd4:	02500513          	li	a0,37
80001bd8:	000400e7          	jalr	s0
80001bdc:	00048593          	mv	a1,s1
80001be0:	000bc503          	lbu	a0,0(s7)
80001be4:	fd5ff06f          	j	80001bb8 <_vprintk+0xf4>
80001be8:	07000693          	li	a3,112
80001bec:	12d50063          	beq	a0,a3,80001d0c <_vprintk+0x248>
80001bf0:	02a6e063          	bltu	a3,a0,80001c10 <_vprintk+0x14c>
80001bf4:	06900693          	li	a3,105
80001bf8:	08d50a63          	beq	a0,a3,80001c8c <_vprintk+0x1c8>
80001bfc:	06c00693          	li	a3,108
80001c00:	08d50263          	beq	a0,a3,80001c84 <_vprintk+0x1c0>
80001c04:	06800693          	li	a3,104
80001c08:	f6d50ae3          	beq	a0,a3,80001b7c <_vprintk+0xb8>
80001c0c:	fc5ff06f          	j	80001bd0 <_vprintk+0x10c>
80001c10:	07500693          	li	a3,117
80001c14:	0cd50a63          	beq	a0,a3,80001ce8 <_vprintk+0x224>
80001c18:	02a6e263          	bltu	a3,a0,80001c3c <_vprintk+0x178>
80001c1c:	07300713          	li	a4,115
80001c20:	fae518e3          	bne	a0,a4,80001bd0 <_vprintk+0x10c>
80001c24:	000d2c03          	lw	s8,0(s10)
80001c28:	004d0c93          	addi	s9,s10,4
80001c2c:	000c4503          	lbu	a0,0(s8)
80001c30:	1e051a63          	bnez	a0,80001e24 <_vprintk+0x360>
80001c34:	000c8d13          	mv	s10,s9
80001c38:	0940006f          	j	80001ccc <_vprintk+0x208>
80001c3c:	07800693          	li	a3,120
80001c40:	0ed50663          	beq	a0,a3,80001d2c <_vprintk+0x268>
80001c44:	07a00693          	li	a3,122
80001c48:	fc1ff06f          	j	80001c08 <_vprintk+0x144>
80001c4c:	00300993          	li	s3,3
80001c50:	f2dff06f          	j	80001b7c <_vprintk+0xb8>
80001c54:	00095e63          	bgez	s2,80001c70 <_vprintk+0x1ac>
80001c58:	20098463          	beqz	s3,80001e60 <_vprintk+0x39c>
80001c5c:	fd050913          	addi	s2,a0,-48
80001c60:	f0099ee3          	bnez	s3,80001b7c <_vprintk+0xb8>
80001c64:	00200993          	li	s3,2
80001c68:	f15ff06f          	j	80001b7c <_vprintk+0xb8>
80001c6c:	fe0948e3          	bltz	s2,80001c5c <_vprintk+0x198>
80001c70:	00a00693          	li	a3,10
80001c74:	02d90933          	mul	s2,s2,a3
80001c78:	00a90933          	add	s2,s2,a0
80001c7c:	fd090913          	addi	s2,s2,-48
80001c80:	fe1ff06f          	j	80001c60 <_vprintk+0x19c>
80001c84:	001a8a93          	addi	s5,s5,1
80001c88:	ef5ff06f          	j	80001b7c <_vprintk+0xb8>
80001c8c:	055a4463          	blt	s4,s5,80001cd4 <_vprintk+0x210>
80001c90:	000d2603          	lw	a2,0(s10)
80001c94:	004d0d13          	addi	s10,s10,4
80001c98:	02065063          	bgez	a2,80001cb8 <_vprintk+0x1f4>
80001c9c:	00c12223          	sw	a2,4(sp)
80001ca0:	00048593          	mv	a1,s1
80001ca4:	02d00513          	li	a0,45
80001ca8:	000400e7          	jalr	s0
80001cac:	00412603          	lw	a2,4(sp)
80001cb0:	fff90913          	addi	s2,s2,-1
80001cb4:	40c00633          	neg	a2,a2
80001cb8:	00090713          	mv	a4,s2
80001cbc:	00098693          	mv	a3,s3
80001cc0:	00048593          	mv	a1,s1
80001cc4:	00040513          	mv	a0,s0
80001cc8:	ca5ff0ef          	jal	ra,8000196c <_printk_dec_ulong>
80001ccc:	00000c93          	li	s9,0
80001cd0:	eadff06f          	j	80001b7c <_vprintk+0xb8>
80001cd4:	007d0793          	addi	a5,s10,7
80001cd8:	ff87f713          	andi	a4,a5,-8
80001cdc:	00870d13          	addi	s10,a4,8
80001ce0:	00072603          	lw	a2,0(a4)
80001ce4:	fb5ff06f          	j	80001c98 <_vprintk+0x1d4>
80001ce8:	015a4863          	blt	s4,s5,80001cf8 <_vprintk+0x234>
80001cec:	000d2603          	lw	a2,0(s10)
80001cf0:	004d0d13          	addi	s10,s10,4
80001cf4:	fc5ff06f          	j	80001cb8 <_vprintk+0x1f4>
80001cf8:	007d0793          	addi	a5,s10,7
80001cfc:	ff87f713          	andi	a4,a5,-8
80001d00:	00870d13          	addi	s10,a4,8
80001d04:	00072603          	lw	a2,0(a4)
80001d08:	fb1ff06f          	j	80001cb8 <_vprintk+0x1f4>
80001d0c:	00048593          	mv	a1,s1
80001d10:	000b0513          	mv	a0,s6
80001d14:	000400e7          	jalr	s0
80001d18:	00048593          	mv	a1,s1
80001d1c:	07800513          	li	a0,120
80001d20:	000400e7          	jalr	s0
80001d24:	00800913          	li	s2,8
80001d28:	000a0993          	mv	s3,s4
80001d2c:	055a4663          	blt	s4,s5,80001d78 <_vprintk+0x2b4>
80001d30:	000d2783          	lw	a5,0(s10)
80001d34:	004d0d13          	addi	s10,s10,4
80001d38:	00f12223          	sw	a5,4(sp)
80001d3c:	00800813          	li	a6,8
80001d40:	00000c13          	li	s8,0
80001d44:	00012623          	sw	zero,12(sp)
80001d48:	00080d93          	mv	s11,a6
80001d4c:	00412783          	lw	a5,4(sp)
80001d50:	fffd8d93          	addi	s11,s11,-1
80001d54:	002d9693          	slli	a3,s11,0x2
80001d58:	00d7d6b3          	srl	a3,a5,a3
80001d5c:	00f6f693          	andi	a3,a3,15
80001d60:	02069c63          	bnez	a3,80001d98 <_vprintk+0x2d4>
80001d64:	00c12783          	lw	a5,12(sp)
80001d68:	00079463          	bnez	a5,80001d70 <_vprintk+0x2ac>
80001d6c:	080d9263          	bnez	s11,80001df0 <_vprintk+0x32c>
80001d70:	000b0513          	mv	a0,s6
80001d74:	0300006f          	j	80001da4 <_vprintk+0x2e0>
80001d78:	007d0793          	addi	a5,s10,7
80001d7c:	ff87f693          	andi	a3,a5,-8
80001d80:	0006a783          	lw	a5,0(a3)
80001d84:	00868d13          	addi	s10,a3,8
80001d88:	00f12223          	sw	a5,4(sp)
80001d8c:	fb1ff06f          	j	80001d3c <_vprintk+0x278>
80001d90:	00812803          	lw	a6,8(sp)
80001d94:	fb9ff06f          	j	80001d4c <_vprintk+0x288>
80001d98:	00900793          	li	a5,9
80001d9c:	05700513          	li	a0,87
80001da0:	fcd7f8e3          	bleu	a3,a5,80001d70 <_vprintk+0x2ac>
80001da4:	01012423          	sw	a6,8(sp)
80001da8:	00048593          	mv	a1,s1
80001dac:	00a68533          	add	a0,a3,a0
80001db0:	000400e7          	jalr	s0
80001db4:	001c0c13          	addi	s8,s8,1
80001db8:	01912623          	sw	s9,12(sp)
80001dbc:	fc0d9ae3          	bnez	s11,80001d90 <_vprintk+0x2cc>
80001dc0:	00300693          	li	a3,3
80001dc4:	00000c93          	li	s9,0
80001dc8:	dad99ae3          	bne	s3,a3,80001b7c <_vprintk+0xb8>
80001dcc:	00191713          	slli	a4,s2,0x1
80001dd0:	41870c33          	sub	s8,a4,s8
80001dd4:	02000c93          	li	s9,32
80001dd8:	ef805ae3          	blez	s8,80001ccc <_vprintk+0x208>
80001ddc:	00048593          	mv	a1,s1
80001de0:	000c8513          	mv	a0,s9
80001de4:	000400e7          	jalr	s0
80001de8:	fffc0c13          	addi	s8,s8,-1
80001dec:	fedff06f          	j	80001dd8 <_vprintk+0x314>
80001df0:	fff80793          	addi	a5,a6,-1
80001df4:	00f12423          	sw	a5,8(sp)
80001df8:	fd0942e3          	blt	s2,a6,80001dbc <_vprintk+0x2f8>
80001dfc:	01499a63          	bne	s3,s4,80001e10 <_vprintk+0x34c>
80001e00:	00048593          	mv	a1,s1
80001e04:	000b0513          	mv	a0,s6
80001e08:	000400e7          	jalr	s0
80001e0c:	fb1ff06f          	j	80001dbc <_vprintk+0x2f8>
80001e10:	00200793          	li	a5,2
80001e14:	faf994e3          	bne	s3,a5,80001dbc <_vprintk+0x2f8>
80001e18:	00048593          	mv	a1,s1
80001e1c:	02000513          	li	a0,32
80001e20:	fe9ff06f          	j	80001e08 <_vprintk+0x344>
80001e24:	00048593          	mv	a1,s1
80001e28:	001c0c13          	addi	s8,s8,1
80001e2c:	000400e7          	jalr	s0
80001e30:	dfdff06f          	j	80001c2c <_vprintk+0x168>
80001e34:	000d2503          	lw	a0,0(s10)
80001e38:	004d0c13          	addi	s8,s10,4
80001e3c:	00048593          	mv	a1,s1
80001e40:	000400e7          	jalr	s0
80001e44:	000c0d13          	mv	s10,s8
80001e48:	e85ff06f          	j	80001ccc <_vprintk+0x208>
80001e4c:	00000a93          	li	s5,0
80001e50:	fff00913          	li	s2,-1
80001e54:	00000993          	li	s3,0
80001e58:	000a0c93          	mv	s9,s4
80001e5c:	d21ff06f          	j	80001b7c <_vprintk+0xb8>
80001e60:	000a0993          	mv	s3,s4
80001e64:	d19ff06f          	j	80001b7c <_vprintk+0xb8>

80001e68 <vprintk>:
80001e68:	fe010113          	addi	sp,sp,-32
80001e6c:	00050613          	mv	a2,a0
80001e70:	80002537          	lui	a0,0x80002
80001e74:	00058693          	mv	a3,a1
80001e78:	95450513          	addi	a0,a0,-1708 # 80001954 <CONFIG_OFFLOAD_WORKQUEUE_PRIORITY+0x80001955>
80001e7c:	00c10593          	addi	a1,sp,12
80001e80:	00112e23          	sw	ra,28(sp)
80001e84:	00012623          	sw	zero,12(sp)
80001e88:	c3dff0ef          	jal	ra,80001ac4 <_vprintk>
80001e8c:	01c12083          	lw	ra,28(sp)
80001e90:	00c12503          	lw	a0,12(sp)
80001e94:	02010113          	addi	sp,sp,32
80001e98:	00008067          	ret

80001e9c <printk>:
80001e9c:	fc010113          	addi	sp,sp,-64
80001ea0:	02b12223          	sw	a1,36(sp)
80001ea4:	02410593          	addi	a1,sp,36
80001ea8:	00112e23          	sw	ra,28(sp)
80001eac:	02c12423          	sw	a2,40(sp)
80001eb0:	02d12623          	sw	a3,44(sp)
80001eb4:	02e12823          	sw	a4,48(sp)
80001eb8:	02f12a23          	sw	a5,52(sp)
80001ebc:	03012c23          	sw	a6,56(sp)
80001ec0:	03112e23          	sw	a7,60(sp)
80001ec4:	00b12623          	sw	a1,12(sp)
80001ec8:	fa1ff0ef          	jal	ra,80001e68 <vprintk>
80001ecc:	01c12083          	lw	ra,28(sp)
80001ed0:	04010113          	addi	sp,sp,64
80001ed4:	00008067          	ret

80001ed8 <_ConfigAbsSyms>:
80001ed8:	00008067          	ret

80001edc <k_cpu_idle>:
80001edc:	00800793          	li	a5,8
80001ee0:	3007a7f3          	csrrs	a5,mstatus,a5
80001ee4:	10500073          	wfi
80001ee8:	00008067          	ret
80001eec:	00800793          	li	a5,8
80001ef0:	3007a7f3          	csrrs	a5,mstatus,a5
80001ef4:	00008067          	ret

80001ef8 <_arch_irq_enable>:
80001ef8:	00b00713          	li	a4,11
80001efc:	00050793          	mv	a5,a0
80001f00:	00a77463          	bleu	a0,a4,80001f08 <_arch_irq_enable+0x10>
80001f04:	94dff06f          	j	80001850 <riscv_plic_irq_enable>
80001f08:	00100513          	li	a0,1
80001f0c:	00f51533          	sll	a0,a0,a5
80001f10:	30452573          	csrrs	a0,mie,a0
80001f14:	00008067          	ret

80001f18 <_arch_irq_disable>:
80001f18:	00b00713          	li	a4,11
80001f1c:	00050793          	mv	a5,a0
80001f20:	00a77463          	bleu	a0,a4,80001f28 <_arch_irq_disable+0x10>
80001f24:	969ff06f          	j	8000188c <riscv_plic_irq_disable>
80001f28:	00100513          	li	a0,1
80001f2c:	00f51533          	sll	a0,a0,a5
80001f30:	30453573          	csrrc	a0,mie,a0
80001f34:	00008067          	ret

80001f38 <soc_interrupt_init>:
80001f38:	00800793          	li	a5,8
80001f3c:	3007b7f3          	csrrc	a5,mstatus,a5
80001f40:	30405073          	csrwi	mie,0
80001f44:	34405073          	csrwi	mip,0
80001f48:	00008067          	ret

80001f4c <__start>:
80001f4c:	00002117          	auipc	sp,0x2
80001f50:	f1410113          	addi	sp,sp,-236 # 80003e60 <_interrupt_stack>
80001f54:	000012b7          	lui	t0,0x1
80001f58:	80028293          	addi	t0,t0,-2048 # 800 <CONFIG_ISR_STACK_SIZE>
80001f5c:	00510133          	add	sp,sp,t0
80001f60:	298000ef          	jal	ra,800021f8 <_PrepC>

80001f64 <_SysFatalErrorHandler>:
80001f64:	ff010113          	addi	sp,sp,-16
80001f68:	00112623          	sw	ra,12(sp)
80001f6c:	00812423          	sw	s0,8(sp)
80001f70:	00600793          	li	a5,6
80001f74:	02f50463          	beq	a0,a5,80001f9c <_SysFatalErrorHandler+0x38>
80001f78:	50d000ef          	jal	ra,80002c84 <k_is_in_isr>
80001f7c:	02050463          	beqz	a0,80001fa4 <_SysFatalErrorHandler+0x40>
80001f80:	505000ef          	jal	ra,80002c84 <k_is_in_isr>
80001f84:	04051663          	bnez	a0,80001fd0 <_SysFatalErrorHandler+0x6c>
80001f88:	800035b7          	lui	a1,0x80003
80001f8c:	34858593          	addi	a1,a1,840 # 80003348 <CONFIG_OFFLOAD_WORKQUEUE_PRIORITY+0x80003349>
80001f90:	80003537          	lui	a0,0x80003
80001f94:	35c50513          	addi	a0,a0,860 # 8000335c <CONFIG_OFFLOAD_WORKQUEUE_PRIORITY+0x8000335d>
80001f98:	f05ff0ef          	jal	ra,80001e9c <printk>
80001f9c:	f41ff0ef          	jal	ra,80001edc <k_cpu_idle>
80001fa0:	ffdff06f          	j	80001f9c <_SysFatalErrorHandler+0x38>
80001fa4:	4f1000ef          	jal	ra,80002c94 <_is_thread_essential>
80001fa8:	fc051ce3          	bnez	a0,80001f80 <_SysFatalErrorHandler+0x1c>
80001fac:	80003437          	lui	s0,0x80003
80001fb0:	72840413          	addi	s0,s0,1832 # 80003728 <CONFIG_OFFLOAD_WORKQUEUE_PRIORITY+0x80003729>
80001fb4:	00842583          	lw	a1,8(s0)
80001fb8:	80003537          	lui	a0,0x80003
80001fbc:	37c50513          	addi	a0,a0,892 # 8000337c <CONFIG_OFFLOAD_WORKQUEUE_PRIORITY+0x8000337d>
80001fc0:	eddff0ef          	jal	ra,80001e9c <printk>
80001fc4:	00842503          	lw	a0,8(s0)
80001fc8:	6cd000ef          	jal	ra,80002e94 <k_thread_abort>
80001fcc:	fd1ff06f          	j	80001f9c <_SysFatalErrorHandler+0x38>
80001fd0:	800035b7          	lui	a1,0x80003
80001fd4:	34458593          	addi	a1,a1,836 # 80003344 <CONFIG_OFFLOAD_WORKQUEUE_PRIORITY+0x80003345>
80001fd8:	fb9ff06f          	j	80001f90 <_SysFatalErrorHandler+0x2c>

80001fdc <_NanoFatalErrorHandler>:
80001fdc:	fb010113          	addi	sp,sp,-80
80001fe0:	04812423          	sw	s0,72(sp)
80001fe4:	04912223          	sw	s1,68(sp)
80001fe8:	04112623          	sw	ra,76(sp)
80001fec:	00600793          	li	a5,6
80001ff0:	00050493          	mv	s1,a0
80001ff4:	00058413          	mv	s0,a1
80001ff8:	10a7ec63          	bltu	a5,a0,80002110 <_NanoFatalErrorHandler+0x134>
80001ffc:	80003737          	lui	a4,0x80003
80002000:	00251793          	slli	a5,a0,0x2
80002004:	0c470713          	addi	a4,a4,196 # 800030c4 <CONFIG_OFFLOAD_WORKQUEUE_PRIORITY+0x800030c5>
80002008:	00e787b3          	add	a5,a5,a4
8000200c:	0007a783          	lw	a5,0(a5)
80002010:	00078067          	jr	a5
80002014:	80003537          	lui	a0,0x80003
80002018:	14c50513          	addi	a0,a0,332 # 8000314c <CONFIG_OFFLOAD_WORKQUEUE_PRIORITY+0x8000314d>
8000201c:	e81ff0ef          	jal	ra,80001e9c <printk>
80002020:	7d0000ef          	jal	ra,800027f0 <k_current_get>
80002024:	04842783          	lw	a5,72(s0)
80002028:	deadc737          	lui	a4,0xdeadc
8000202c:	aad70713          	addi	a4,a4,-1363 # deadbaad <CONFIG_OFFLOAD_WORKQUEUE_PRIORITY+0xdeadbaae>
80002030:	00050593          	mv	a1,a0
80002034:	00078613          	mv	a2,a5
80002038:	00e78463          	beq	a5,a4,80002040 <_NanoFatalErrorHandler+0x64>
8000203c:	ffc78613          	addi	a2,a5,-4
80002040:	04442503          	lw	a0,68(s0)
80002044:	01042883          	lw	a7,16(s0)
80002048:	00c42803          	lw	a6,12(s0)
8000204c:	00842783          	lw	a5,8(s0)
80002050:	00442703          	lw	a4,4(s0)
80002054:	00042683          	lw	a3,0(s0)
80002058:	02a12823          	sw	a0,48(sp)
8000205c:	04042503          	lw	a0,64(s0)
80002060:	02a12623          	sw	a0,44(sp)
80002064:	03c42503          	lw	a0,60(s0)
80002068:	02a12423          	sw	a0,40(sp)
8000206c:	03842503          	lw	a0,56(s0)
80002070:	02a12223          	sw	a0,36(sp)
80002074:	03442503          	lw	a0,52(s0)
80002078:	02a12023          	sw	a0,32(sp)
8000207c:	03042503          	lw	a0,48(s0)
80002080:	00a12e23          	sw	a0,28(sp)
80002084:	02c42503          	lw	a0,44(s0)
80002088:	00a12c23          	sw	a0,24(sp)
8000208c:	02842503          	lw	a0,40(s0)
80002090:	00a12a23          	sw	a0,20(sp)
80002094:	02442503          	lw	a0,36(s0)
80002098:	00a12823          	sw	a0,16(sp)
8000209c:	02042503          	lw	a0,32(s0)
800020a0:	00a12623          	sw	a0,12(sp)
800020a4:	01c42503          	lw	a0,28(s0)
800020a8:	00a12423          	sw	a0,8(sp)
800020ac:	01842503          	lw	a0,24(s0)
800020b0:	00a12223          	sw	a0,4(sp)
800020b4:	01442503          	lw	a0,20(s0)
800020b8:	00a12023          	sw	a0,0(sp)
800020bc:	80003537          	lui	a0,0x80003
800020c0:	24c50513          	addi	a0,a0,588 # 8000324c <CONFIG_OFFLOAD_WORKQUEUE_PRIORITY+0x8000324d>
800020c4:	dd9ff0ef          	jal	ra,80001e9c <printk>
800020c8:	00040593          	mv	a1,s0
800020cc:	00048513          	mv	a0,s1
800020d0:	e95ff0ef          	jal	ra,80001f64 <_SysFatalErrorHandler>
800020d4:	80003537          	lui	a0,0x80003
800020d8:	17450513          	addi	a0,a0,372 # 80003174 <CONFIG_OFFLOAD_WORKQUEUE_PRIORITY+0x80003175>
800020dc:	f41ff06f          	j	8000201c <_NanoFatalErrorHandler+0x40>
800020e0:	80003537          	lui	a0,0x80003
800020e4:	19c50513          	addi	a0,a0,412 # 8000319c <CONFIG_OFFLOAD_WORKQUEUE_PRIORITY+0x8000319d>
800020e8:	f35ff06f          	j	8000201c <_NanoFatalErrorHandler+0x40>
800020ec:	80003537          	lui	a0,0x80003
800020f0:	1c850513          	addi	a0,a0,456 # 800031c8 <CONFIG_OFFLOAD_WORKQUEUE_PRIORITY+0x800031c9>
800020f4:	f29ff06f          	j	8000201c <_NanoFatalErrorHandler+0x40>
800020f8:	80003537          	lui	a0,0x80003
800020fc:	1f050513          	addi	a0,a0,496 # 800031f0 <CONFIG_OFFLOAD_WORKQUEUE_PRIORITY+0x800031f1>
80002100:	f1dff06f          	j	8000201c <_NanoFatalErrorHandler+0x40>
80002104:	80003537          	lui	a0,0x80003
80002108:	20c50513          	addi	a0,a0,524 # 8000320c <CONFIG_OFFLOAD_WORKQUEUE_PRIORITY+0x8000320d>
8000210c:	f11ff06f          	j	8000201c <_NanoFatalErrorHandler+0x40>
80002110:	80003537          	lui	a0,0x80003
80002114:	00048593          	mv	a1,s1
80002118:	22850513          	addi	a0,a0,552 # 80003228 <CONFIG_OFFLOAD_WORKQUEUE_PRIORITY+0x80003229>
8000211c:	d81ff0ef          	jal	ra,80001e9c <printk>
80002120:	f01ff06f          	j	80002020 <_NanoFatalErrorHandler+0x44>

80002124 <_Fault>:
80002124:	ff010113          	addi	sp,sp,-16
80002128:	00912223          	sw	s1,4(sp)
8000212c:	00112623          	sw	ra,12(sp)
80002130:	00812423          	sw	s0,8(sp)
80002134:	00050493          	mv	s1,a0
80002138:	34202473          	csrr	s0,mcause
8000213c:	30502673          	csrr	a2,mtvec
80002140:	80003537          	lui	a0,0x80003
80002144:	00040593          	mv	a1,s0
80002148:	10050513          	addi	a0,a0,256 # 80003100 <CONFIG_OFFLOAD_WORKQUEUE_PRIORITY+0x80003101>
8000214c:	d51ff0ef          	jal	ra,80001e9c <printk>
80002150:	800007b7          	lui	a5,0x80000
80002154:	fff7c793          	not	a5,a5
80002158:	00f47433          	and	s0,s0,a5
8000215c:	00500793          	li	a5,5
80002160:	0287ea63          	bltu	a5,s0,80002194 <_Fault+0x70>
80002164:	80003737          	lui	a4,0x80003
80002168:	00241793          	slli	a5,s0,0x2
8000216c:	0e070713          	addi	a4,a4,224 # 800030e0 <CONFIG_OFFLOAD_WORKQUEUE_PRIORITY+0x800030e1>
80002170:	00f707b3          	add	a5,a4,a5
80002174:	0007a583          	lw	a1,0(a5) # 80000000 <CONFIG_OFFLOAD_WORKQUEUE_PRIORITY+0x80000001>
80002178:	80003537          	lui	a0,0x80003
8000217c:	00040613          	mv	a2,s0
80002180:	13050513          	addi	a0,a0,304 # 80003130 <CONFIG_OFFLOAD_WORKQUEUE_PRIORITY+0x80003131>
80002184:	d19ff0ef          	jal	ra,80001e9c <printk>
80002188:	00048593          	mv	a1,s1
8000218c:	00040513          	mv	a0,s0
80002190:	e4dff0ef          	jal	ra,80001fdc <_NanoFatalErrorHandler>
80002194:	800035b7          	lui	a1,0x80003
80002198:	0f858593          	addi	a1,a1,248 # 800030f8 <CONFIG_OFFLOAD_WORKQUEUE_PRIORITY+0x800030f9>
8000219c:	fddff06f          	j	80002178 <_Fault+0x54>

800021a0 <_irq_spurious>:
800021a0:	ff010113          	addi	sp,sp,-16
800021a4:	00112623          	sw	ra,12(sp)
800021a8:	00812423          	sw	s0,8(sp)
800021ac:	34202473          	csrr	s0,mcause
800021b0:	800007b7          	lui	a5,0x80000
800021b4:	fff7c793          	not	a5,a5
800021b8:	00f47433          	and	s0,s0,a5
800021bc:	80003537          	lui	a0,0x80003
800021c0:	00040593          	mv	a1,s0
800021c4:	47c50513          	addi	a0,a0,1148 # 8000347c <CONFIG_OFFLOAD_WORKQUEUE_PRIORITY+0x8000347d>
800021c8:	cd5ff0ef          	jal	ra,80001e9c <printk>
800021cc:	00b00793          	li	a5,11
800021d0:	00f41c63          	bne	s0,a5,800021e8 <_irq_spurious+0x48>
800021d4:	f24ff0ef          	jal	ra,800018f8 <riscv_plic_get_irq>
800021d8:	00050593          	mv	a1,a0
800021dc:	80003537          	lui	a0,0x80003
800021e0:	4a450513          	addi	a0,a0,1188 # 800034a4 <CONFIG_OFFLOAD_WORKQUEUE_PRIORITY+0x800034a5>
800021e4:	cb9ff0ef          	jal	ra,80001e9c <printk>
800021e8:	800035b7          	lui	a1,0x80003
800021ec:	3a458593          	addi	a1,a1,932 # 800033a4 <CONFIG_OFFLOAD_WORKQUEUE_PRIORITY+0x800033a5>
800021f0:	00400513          	li	a0,4
800021f4:	de9ff0ef          	jal	ra,80001fdc <_NanoFatalErrorHandler>

800021f8 <_PrepC>:
800021f8:	ff010113          	addi	sp,sp,-16
800021fc:	00112623          	sw	ra,12(sp)
80002200:	1b4000ef          	jal	ra,800023b4 <_bss_zero>
80002204:	210000ef          	jal	ra,80002414 <_Cstart>

80002208 <_thread_entry_wrapper>:
80002208:	2a10006f          	j	80002ca8 <_thread_entry>

8000220c <_new_thread>:
8000220c:	fd010113          	addi	sp,sp,-48
80002210:	01312e23          	sw	s3,28(sp)
80002214:	00068993          	mv	s3,a3
80002218:	03012683          	lw	a3,48(sp)
8000221c:	02812423          	sw	s0,40(sp)
80002220:	03212023          	sw	s2,32(sp)
80002224:	00058413          	mv	s0,a1
80002228:	00060913          	mv	s2,a2
8000222c:	00088593          	mv	a1,a7
80002230:	00400613          	li	a2,4
80002234:	02112623          	sw	ra,44(sp)
80002238:	02912223          	sw	s1,36(sp)
8000223c:	00e12623          	sw	a4,12(sp)
80002240:	00050493          	mv	s1,a0
80002244:	00f12423          	sw	a5,8(sp)
80002248:	01012223          	sw	a6,4(sp)
8000224c:	421000ef          	jal	ra,80002e6c <_init_thread_base>
80002250:	00812783          	lw	a5,8(sp)
80002254:	fb090593          	addi	a1,s2,-80
80002258:	00b405b3          	add	a1,s0,a1
8000225c:	0404ae23          	sw	zero,92(s1)
80002260:	0604a023          	sw	zero,96(s1)
80002264:	ff05f593          	andi	a1,a1,-16
80002268:	02f5a823          	sw	a5,48(a1)
8000226c:	000027b7          	lui	a5,0x2
80002270:	00c12703          	lw	a4,12(sp)
80002274:	00412803          	lw	a6,4(sp)
80002278:	88078793          	addi	a5,a5,-1920 # 1880 <CONFIG_ISR_STACK_SIZE+0x1080>
8000227c:	04f5a623          	sw	a5,76(a1)
80002280:	02c12083          	lw	ra,44(sp)
80002284:	800027b7          	lui	a5,0x80002
80002288:	20878793          	addi	a5,a5,520 # 80002208 <CONFIG_OFFLOAD_WORKQUEUE_PRIORITY+0x80002209>
8000228c:	0335a423          	sw	s3,40(a1)
80002290:	02e5a623          	sw	a4,44(a1)
80002294:	0305aa23          	sw	a6,52(a1)
80002298:	04f5a423          	sw	a5,72(a1)
8000229c:	02b4a423          	sw	a1,40(s1)
800022a0:	02812403          	lw	s0,40(sp)
800022a4:	02412483          	lw	s1,36(sp)
800022a8:	02012903          	lw	s2,32(sp)
800022ac:	01c12983          	lw	s3,28(sp)
800022b0:	03010113          	addi	sp,sp,48
800022b4:	00008067          	ret

800022b8 <_irq_do_offload>:
800022b8:	800047b7          	lui	a5,0x80004
800022bc:	8447a703          	lw	a4,-1980(a5) # 80003844 <CONFIG_OFFLOAD_WORKQUEUE_PRIORITY+0x80003845>
800022c0:	00070c63          	beqz	a4,800022d8 <_irq_do_offload+0x20>
800022c4:	8447a303          	lw	t1,-1980(a5)
800022c8:	8407a223          	sw	zero,-1980(a5)
800022cc:	800037b7          	lui	a5,0x80003
800022d0:	5c47a503          	lw	a0,1476(a5) # 800035c4 <CONFIG_OFFLOAD_WORKQUEUE_PRIORITY+0x800035c5>
800022d4:	00030067          	jr	t1
800022d8:	00008067          	ret

800022dc <_sys_device_do_config_level>:
800022dc:	00251713          	slli	a4,a0,0x2
800022e0:	800037b7          	lui	a5,0x80003
800022e4:	00150513          	addi	a0,a0,1
800022e8:	4d078793          	addi	a5,a5,1232 # 800034d0 <CONFIG_OFFLOAD_WORKQUEUE_PRIORITY+0x800034d1>
800022ec:	00251513          	slli	a0,a0,0x2
800022f0:	ff010113          	addi	sp,sp,-16
800022f4:	00e78733          	add	a4,a5,a4
800022f8:	00a787b3          	add	a5,a5,a0
800022fc:	00812423          	sw	s0,8(sp)
80002300:	00912223          	sw	s1,4(sp)
80002304:	00072403          	lw	s0,0(a4)
80002308:	0007a483          	lw	s1,0(a5)
8000230c:	00112623          	sw	ra,12(sp)
80002310:	00946c63          	bltu	s0,s1,80002328 <_sys_device_do_config_level+0x4c>
80002314:	00c12083          	lw	ra,12(sp)
80002318:	00812403          	lw	s0,8(sp)
8000231c:	00412483          	lw	s1,4(sp)
80002320:	01010113          	addi	sp,sp,16
80002324:	00008067          	ret
80002328:	00042783          	lw	a5,0(s0)
8000232c:	00040513          	mv	a0,s0
80002330:	00c40413          	addi	s0,s0,12
80002334:	0047a783          	lw	a5,4(a5)
80002338:	000780e7          	jalr	a5
8000233c:	fd5ff06f          	j	80002310 <_sys_device_do_config_level+0x34>

80002340 <device_get_binding>:
80002340:	ff010113          	addi	sp,sp,-16
80002344:	00812423          	sw	s0,8(sp)
80002348:	00912223          	sw	s1,4(sp)
8000234c:	80003437          	lui	s0,0x80003
80002350:	800034b7          	lui	s1,0x80003
80002354:	01212023          	sw	s2,0(sp)
80002358:	00112623          	sw	ra,12(sp)
8000235c:	00050913          	mv	s2,a0
80002360:	58040413          	addi	s0,s0,1408 # 80003580 <CONFIG_OFFLOAD_WORKQUEUE_PRIORITY+0x80003581>
80002364:	5b048493          	addi	s1,s1,1456 # 800035b0 <CONFIG_OFFLOAD_WORKQUEUE_PRIORITY+0x800035b1>
80002368:	00941663          	bne	s0,s1,80002374 <device_get_binding+0x34>
8000236c:	00000413          	li	s0,0
80002370:	0280006f          	j	80002398 <device_get_binding+0x58>
80002374:	00442783          	lw	a5,4(s0)
80002378:	00079663          	bnez	a5,80002384 <device_get_binding+0x44>
8000237c:	00c40413          	addi	s0,s0,12
80002380:	fe9ff06f          	j	80002368 <device_get_binding+0x28>
80002384:	00042783          	lw	a5,0(s0)
80002388:	00090513          	mv	a0,s2
8000238c:	0007a583          	lw	a1,0(a5)
80002390:	9f4ff0ef          	jal	ra,80001584 <strcmp>
80002394:	fe0514e3          	bnez	a0,8000237c <device_get_binding+0x3c>
80002398:	00c12083          	lw	ra,12(sp)
8000239c:	00040513          	mv	a0,s0
800023a0:	00412483          	lw	s1,4(sp)
800023a4:	00812403          	lw	s0,8(sp)
800023a8:	00012903          	lw	s2,0(sp)
800023ac:	01010113          	addi	sp,sp,16
800023b0:	00008067          	ret

800023b4 <_bss_zero>:
800023b4:	80003537          	lui	a0,0x80003
800023b8:	800047b7          	lui	a5,0x80004
800023bc:	5b050613          	addi	a2,a0,1456 # 800035b0 <CONFIG_OFFLOAD_WORKQUEUE_PRIORITY+0x800035b1>
800023c0:	85878793          	addi	a5,a5,-1960 # 80003858 <CONFIG_OFFLOAD_WORKQUEUE_PRIORITY+0x80003859>
800023c4:	40c78633          	sub	a2,a5,a2
800023c8:	00000593          	li	a1,0
800023cc:	5b050513          	addi	a0,a0,1456
800023d0:	9dcff06f          	j	800015ac <memset>

800023d4 <_main>:
800023d4:	ff010113          	addi	sp,sp,-16
800023d8:	00200513          	li	a0,2
800023dc:	00112623          	sw	ra,12(sp)
800023e0:	efdff0ef          	jal	ra,800022dc <_sys_device_do_config_level>
800023e4:	00300513          	li	a0,3
800023e8:	ef5ff0ef          	jal	ra,800022dc <_sys_device_do_config_level>
800023ec:	1a5000ef          	jal	ra,80002d90 <_init_static_threads>
800023f0:	aa5fe0ef          	jal	ra,80000e94 <main>
800023f4:	800037b7          	lui	a5,0x80003
800023f8:	6bc78793          	addi	a5,a5,1724 # 800036bc <CONFIG_OFFLOAD_WORKQUEUE_PRIORITY+0x800036bd>
800023fc:	0087c703          	lbu	a4,8(a5)
80002400:	ffe77713          	andi	a4,a4,-2
80002404:	00e78423          	sb	a4,8(a5)
80002408:	00c12083          	lw	ra,12(sp)
8000240c:	01010113          	addi	sp,sp,16
80002410:	00008067          	ret

80002414 <_Cstart>:
80002414:	f6010113          	addi	sp,sp,-160
80002418:	08812c23          	sw	s0,152(sp)
8000241c:	80003437          	lui	s0,0x80003
80002420:	72840793          	addi	a5,s0,1832 # 80003728 <CONFIG_OFFLOAD_WORKQUEUE_PRIORITY+0x80003729>
80002424:	01410713          	addi	a4,sp,20
80002428:	08112e23          	sw	ra,156(sp)
8000242c:	08912a23          	sw	s1,148(sp)
80002430:	09212823          	sw	s2,144(sp)
80002434:	09312623          	sw	s3,140(sp)
80002438:	00e7a423          	sw	a4,8(a5)
8000243c:	00100793          	li	a5,1
80002440:	00f10e23          	sb	a5,28(sp)
80002444:	00f10ea3          	sb	a5,29(sp)
80002448:	af1ff0ef          	jal	ra,80001f38 <soc_interrupt_init>
8000244c:	800037b7          	lui	a5,0x80003
80002450:	74478793          	addi	a5,a5,1860 # 80003744 <CONFIG_OFFLOAD_WORKQUEUE_PRIORITY+0x80003745>
80002454:	00000713          	li	a4,0
80002458:	72840413          	addi	s0,s0,1832
8000245c:	02000693          	li	a3,32
80002460:	00f7a023          	sw	a5,0(a5)
80002464:	00f7a223          	sw	a5,4(a5)
80002468:	00170713          	addi	a4,a4,1
8000246c:	00878793          	addi	a5,a5,8
80002470:	fed718e3          	bne	a4,a3,80002460 <_Cstart+0x4c>
80002474:	80003937          	lui	s2,0x80003
80002478:	6bc90993          	addi	s3,s2,1724 # 800036bc <CONFIG_OFFLOAD_WORKQUEUE_PRIORITY+0x800036bd>
8000247c:	01342a23          	sw	s3,20(s0)
80002480:	00100493          	li	s1,1
80002484:	800026b7          	lui	a3,0x80002
80002488:	800045b7          	lui	a1,0x80004
8000248c:	00000893          	li	a7,0
80002490:	00000813          	li	a6,0
80002494:	00000713          	li	a4,0
80002498:	3d468693          	addi	a3,a3,980 # 800023d4 <CONFIG_OFFLOAD_WORKQUEUE_PRIORITY+0x800023d5>
8000249c:	40000613          	li	a2,1024
800024a0:	86058593          	addi	a1,a1,-1952 # 80003860 <CONFIG_OFFLOAD_WORKQUEUE_PRIORITY+0x80003861>
800024a4:	6bc90513          	addi	a0,s2,1724
800024a8:	00912023          	sw	s1,0(sp)
800024ac:	00000793          	li	a5,0
800024b0:	d5dff0ef          	jal	ra,8000220c <_new_thread>
800024b4:	0099c783          	lbu	a5,9(s3)
800024b8:	6bc90513          	addi	a0,s2,1724
800024bc:	80003937          	lui	s2,0x80003
800024c0:	ffb7f793          	andi	a5,a5,-5
800024c4:	00f984a3          	sb	a5,9(s3)
800024c8:	09c000ef          	jal	ra,80002564 <_add_thread_to_ready_q>
800024cc:	800036b7          	lui	a3,0x80003
800024d0:	800045b7          	lui	a1,0x80004
800024d4:	00f00893          	li	a7,15
800024d8:	00000813          	li	a6,0
800024dc:	eec68693          	addi	a3,a3,-276 # 80002eec <CONFIG_OFFLOAD_WORKQUEUE_PRIORITY+0x80002eed>
800024e0:	20000613          	li	a2,512
800024e4:	c6058593          	addi	a1,a1,-928 # 80003c60 <CONFIG_OFFLOAD_WORKQUEUE_PRIORITY+0x80003c61>
800024e8:	00000713          	li	a4,0
800024ec:	65090513          	addi	a0,s2,1616 # 80003650 <CONFIG_OFFLOAD_WORKQUEUE_PRIORITY+0x80003651>
800024f0:	00912023          	sw	s1,0(sp)
800024f4:	00000793          	li	a5,0
800024f8:	d15ff0ef          	jal	ra,8000220c <_new_thread>
800024fc:	65090993          	addi	s3,s2,1616
80002500:	0099c783          	lbu	a5,9(s3)
80002504:	65090513          	addi	a0,s2,1616
80002508:	ffb7f793          	andi	a5,a5,-5
8000250c:	00f984a3          	sb	a5,9(s3)
80002510:	054000ef          	jal	ra,80002564 <_add_thread_to_ready_q>
80002514:	800037b7          	lui	a5,0x80003
80002518:	73478793          	addi	a5,a5,1844 # 80003734 <CONFIG_OFFLOAD_WORKQUEUE_PRIORITY+0x80003735>
8000251c:	00f42623          	sw	a5,12(s0)
80002520:	00f42823          	sw	a5,16(s0)
80002524:	000017b7          	lui	a5,0x1
80002528:	80078713          	addi	a4,a5,-2048 # 800 <CONFIG_ISR_STACK_SIZE>
8000252c:	800047b7          	lui	a5,0x80004
80002530:	e6078793          	addi	a5,a5,-416 # 80003e60 <CONFIG_OFFLOAD_WORKQUEUE_PRIORITY+0x80003e61>
80002534:	00e787b3          	add	a5,a5,a4
80002538:	00000513          	li	a0,0
8000253c:	00f42223          	sw	a5,4(s0)
80002540:	d9dff0ef          	jal	ra,800022dc <_sys_device_do_config_level>
80002544:	00048513          	mv	a0,s1
80002548:	d95ff0ef          	jal	ra,800022dc <_sys_device_do_config_level>
8000254c:	00800413          	li	s0,8
80002550:	30043473          	csrrc	s0,mstatus,s0
80002554:	30c000ef          	jal	ra,80002860 <_update_time_slice_before_swap>
80002558:	00847513          	andi	a0,s0,8
8000255c:	ffffe317          	auipc	t1,0xffffe
80002560:	d10300e7          	jalr	-752(t1) # 8000026c <__swap>

80002564 <_add_thread_to_ready_q>:
80002564:	00a50783          	lb	a5,10(a0)
80002568:	80003637          	lui	a2,0x80003
8000256c:	72860593          	addi	a1,a2,1832 # 80003728 <CONFIG_OFFLOAD_WORKQUEUE_PRIORITY+0x80003729>
80002570:	01078813          	addi	a6,a5,16
80002574:	40585713          	srai	a4,a6,0x5
80002578:	00470713          	addi	a4,a4,4
8000257c:	00271713          	slli	a4,a4,0x2
80002580:	00e58733          	add	a4,a1,a4
80002584:	00100693          	li	a3,1
80002588:	010696b3          	sll	a3,a3,a6
8000258c:	00872803          	lw	a6,8(a4)
80002590:	01278793          	addi	a5,a5,18
80002594:	00379793          	slli	a5,a5,0x3
80002598:	0106e6b3          	or	a3,a3,a6
8000259c:	00d72423          	sw	a3,8(a4)
800025a0:	00c78713          	addi	a4,a5,12
800025a4:	00e58733          	add	a4,a1,a4
800025a8:	00e52023          	sw	a4,0(a0)
800025ac:	00f587b3          	add	a5,a1,a5
800025b0:	0107a703          	lw	a4,16(a5)
800025b4:	72860613          	addi	a2,a2,1832
800025b8:	00e52223          	sw	a4,4(a0)
800025bc:	0107a703          	lw	a4,16(a5)
800025c0:	00a72023          	sw	a0,0(a4)
800025c4:	00a7a823          	sw	a0,16(a5)
800025c8:	0145a783          	lw	a5,20(a1)
800025cc:	00a50683          	lb	a3,10(a0)
800025d0:	00a78703          	lb	a4,10(a5)
800025d4:	00e6c463          	blt	a3,a4,800025dc <_add_thread_to_ready_q+0x78>
800025d8:	00078513          	mv	a0,a5
800025dc:	00a62a23          	sw	a0,20(a2)
800025e0:	00008067          	ret

800025e4 <_remove_thread_from_ready_q>:
800025e4:	ff010113          	addi	sp,sp,-16
800025e8:	00812423          	sw	s0,8(sp)
800025ec:	00112623          	sw	ra,12(sp)
800025f0:	00452703          	lw	a4,4(a0)
800025f4:	00052683          	lw	a3,0(a0)
800025f8:	00a50783          	lb	a5,10(a0)
800025fc:	80003437          	lui	s0,0x80003
80002600:	00d72023          	sw	a3,0(a4)
80002604:	00052683          	lw	a3,0(a0)
80002608:	01278793          	addi	a5,a5,18
8000260c:	00379793          	slli	a5,a5,0x3
80002610:	00e6a223          	sw	a4,4(a3)
80002614:	72840713          	addi	a4,s0,1832 # 80003728 <CONFIG_OFFLOAD_WORKQUEUE_PRIORITY+0x80003729>
80002618:	00c78693          	addi	a3,a5,12
8000261c:	00f707b3          	add	a5,a4,a5
80002620:	00c7a783          	lw	a5,12(a5)
80002624:	00d706b3          	add	a3,a4,a3
80002628:	72840413          	addi	s0,s0,1832
8000262c:	02d79a63          	bne	a5,a3,80002660 <_remove_thread_from_ready_q+0x7c>
80002630:	00a50703          	lb	a4,10(a0)
80002634:	01070693          	addi	a3,a4,16
80002638:	4056d793          	srai	a5,a3,0x5
8000263c:	00478793          	addi	a5,a5,4
80002640:	00279793          	slli	a5,a5,0x2
80002644:	00f407b3          	add	a5,s0,a5
80002648:	00100713          	li	a4,1
8000264c:	00d71733          	sll	a4,a4,a3
80002650:	0087a683          	lw	a3,8(a5)
80002654:	fff74713          	not	a4,a4
80002658:	00d77733          	and	a4,a4,a3
8000265c:	00e7a423          	sw	a4,8(a5)
80002660:	01442783          	lw	a5,20(s0)
80002664:	00f51e63          	bne	a0,a5,80002680 <_remove_thread_from_ready_q+0x9c>
80002668:	01842503          	lw	a0,24(s0)
8000266c:	e3dfd0ef          	jal	ra,800004a8 <__ffssi2>
80002670:	00150513          	addi	a0,a0,1
80002674:	00351513          	slli	a0,a0,0x3
80002678:	00a40533          	add	a0,s0,a0
8000267c:	00c52783          	lw	a5,12(a0)
80002680:	00c12083          	lw	ra,12(sp)
80002684:	00f42a23          	sw	a5,20(s0)
80002688:	00812403          	lw	s0,8(sp)
8000268c:	01010113          	addi	sp,sp,16
80002690:	00008067          	ret

80002694 <__must_switch_threads>:
80002694:	ff010113          	addi	sp,sp,-16
80002698:	00812423          	sw	s0,8(sp)
8000269c:	80003437          	lui	s0,0x80003
800026a0:	72840413          	addi	s0,s0,1832 # 80003728 <CONFIG_OFFLOAD_WORKQUEUE_PRIORITY+0x80003729>
800026a4:	01842503          	lw	a0,24(s0)
800026a8:	00112623          	sw	ra,12(sp)
800026ac:	dfdfd0ef          	jal	ra,800004a8 <__ffssi2>
800026b0:	00842783          	lw	a5,8(s0)
800026b4:	00c12083          	lw	ra,12(sp)
800026b8:	fef50513          	addi	a0,a0,-17
800026bc:	00a78783          	lb	a5,10(a5)
800026c0:	00812403          	lw	s0,8(sp)
800026c4:	01010113          	addi	sp,sp,16
800026c8:	00f52533          	slt	a0,a0,a5
800026cc:	00008067          	ret

800026d0 <_reschedule_threads>:
800026d0:	800037b7          	lui	a5,0x80003
800026d4:	7307a783          	lw	a5,1840(a5) # 80003730 <CONFIG_OFFLOAD_WORKQUEUE_PRIORITY+0x80003731>
800026d8:	ff010113          	addi	sp,sp,-16
800026dc:	00812423          	sw	s0,8(sp)
800026e0:	00a7d703          	lhu	a4,10(a5)
800026e4:	00112623          	sw	ra,12(sp)
800026e8:	07f00793          	li	a5,127
800026ec:	00050413          	mv	s0,a0
800026f0:	00e7e663          	bltu	a5,a4,800026fc <_reschedule_threads+0x2c>
800026f4:	fa1ff0ef          	jal	ra,80002694 <__must_switch_threads>
800026f8:	00051e63          	bnez	a0,80002714 <_reschedule_threads+0x44>
800026fc:	00847413          	andi	s0,s0,8
80002700:	30042473          	csrrs	s0,mstatus,s0
80002704:	00c12083          	lw	ra,12(sp)
80002708:	00812403          	lw	s0,8(sp)
8000270c:	01010113          	addi	sp,sp,16
80002710:	00008067          	ret
80002714:	00040513          	mv	a0,s0
80002718:	00c12083          	lw	ra,12(sp)
8000271c:	00812403          	lw	s0,8(sp)
80002720:	800047b7          	lui	a5,0x80004
80002724:	01010113          	addi	sp,sp,16
80002728:	8407a623          	sw	zero,-1972(a5) # 8000384c <CONFIG_OFFLOAD_WORKQUEUE_PRIORITY+0x8000384d>
8000272c:	ffffe317          	auipc	t1,0xffffe
80002730:	b4030067          	jr	-1216(t1) # 8000026c <__swap>

80002734 <k_sched_unlock>:
80002734:	00800513          	li	a0,8
80002738:	30053573          	csrrc	a0,mstatus,a0
8000273c:	800037b7          	lui	a5,0x80003
80002740:	7307a703          	lw	a4,1840(a5) # 80003730 <CONFIG_OFFLOAD_WORKQUEUE_PRIORITY+0x80003731>
80002744:	00857513          	andi	a0,a0,8
80002748:	00b74783          	lbu	a5,11(a4)
8000274c:	00178793          	addi	a5,a5,1
80002750:	00f705a3          	sb	a5,11(a4)
80002754:	f7dff06f          	j	800026d0 <_reschedule_threads>

80002758 <_move_thread_to_end_of_prio_q>:
80002758:	ff010113          	addi	sp,sp,-16
8000275c:	00812423          	sw	s0,8(sp)
80002760:	00112623          	sw	ra,12(sp)
80002764:	00a50783          	lb	a5,10(a0)
80002768:	80003437          	lui	s0,0x80003
8000276c:	72840713          	addi	a4,s0,1832 # 80003728 <CONFIG_OFFLOAD_WORKQUEUE_PRIORITY+0x80003729>
80002770:	01278793          	addi	a5,a5,18
80002774:	00379793          	slli	a5,a5,0x3
80002778:	00c78693          	addi	a3,a5,12
8000277c:	00d70733          	add	a4,a4,a3
80002780:	00472683          	lw	a3,4(a4)
80002784:	04d50e63          	beq	a0,a3,800027e0 <_move_thread_to_end_of_prio_q+0x88>
80002788:	00052603          	lw	a2,0(a0)
8000278c:	00452683          	lw	a3,4(a0)
80002790:	72840413          	addi	s0,s0,1832
80002794:	00f407b3          	add	a5,s0,a5
80002798:	00c6a023          	sw	a2,0(a3)
8000279c:	00052603          	lw	a2,0(a0)
800027a0:	00d62223          	sw	a3,4(a2)
800027a4:	00e52023          	sw	a4,0(a0)
800027a8:	0107a703          	lw	a4,16(a5)
800027ac:	00e52223          	sw	a4,4(a0)
800027b0:	0107a703          	lw	a4,16(a5)
800027b4:	00a72023          	sw	a0,0(a4)
800027b8:	00a7a823          	sw	a0,16(a5)
800027bc:	01442783          	lw	a5,20(s0)
800027c0:	00f51e63          	bne	a0,a5,800027dc <_move_thread_to_end_of_prio_q+0x84>
800027c4:	01842503          	lw	a0,24(s0)
800027c8:	ce1fd0ef          	jal	ra,800004a8 <__ffssi2>
800027cc:	00150513          	addi	a0,a0,1
800027d0:	00351513          	slli	a0,a0,0x3
800027d4:	00a40533          	add	a0,s0,a0
800027d8:	00c52783          	lw	a5,12(a0)
800027dc:	00f42a23          	sw	a5,20(s0)
800027e0:	00c12083          	lw	ra,12(sp)
800027e4:	00812403          	lw	s0,8(sp)
800027e8:	01010113          	addi	sp,sp,16
800027ec:	00008067          	ret

800027f0 <k_current_get>:
800027f0:	800037b7          	lui	a5,0x80003
800027f4:	7307a503          	lw	a0,1840(a5) # 80003730 <CONFIG_OFFLOAD_WORKQUEUE_PRIORITY+0x80003731>
800027f8:	00008067          	ret

800027fc <_is_thread_time_slicing>:
800027fc:	800037b7          	lui	a5,0x80003
80002800:	5c87a783          	lw	a5,1480(a5) # 800035c8 <CONFIG_OFFLOAD_WORKQUEUE_PRIORITY+0x800035c9>
80002804:	04f05a63          	blez	a5,80002858 <_is_thread_time_slicing+0x5c>
80002808:	800037b7          	lui	a5,0x80003
8000280c:	5747a703          	lw	a4,1396(a5) # 80003574 <CONFIG_OFFLOAD_WORKQUEUE_PRIORITY+0x80003575>
80002810:	00000793          	li	a5,0
80002814:	02e50e63          	beq	a0,a4,80002850 <_is_thread_time_slicing+0x54>
80002818:	800037b7          	lui	a5,0x80003
8000281c:	5cc7a683          	lw	a3,1484(a5) # 800035cc <CONFIG_OFFLOAD_WORKQUEUE_PRIORITY+0x800035cd>
80002820:	00a50703          	lb	a4,10(a0)
80002824:	00000793          	li	a5,0
80002828:	02d74463          	blt	a4,a3,80002850 <_is_thread_time_slicing+0x54>
8000282c:	01270713          	addi	a4,a4,18
80002830:	00371793          	slli	a5,a4,0x3
80002834:	80003737          	lui	a4,0x80003
80002838:	72870713          	addi	a4,a4,1832 # 80003728 <CONFIG_OFFLOAD_WORKQUEUE_PRIORITY+0x80003729>
8000283c:	00f70733          	add	a4,a4,a5
80002840:	00c72783          	lw	a5,12(a4)
80002844:	01072503          	lw	a0,16(a4)
80002848:	40a787b3          	sub	a5,a5,a0
8000284c:	00f037b3          	snez	a5,a5
80002850:	00078513          	mv	a0,a5
80002854:	00008067          	ret
80002858:	00000793          	li	a5,0
8000285c:	ff5ff06f          	j	80002850 <_is_thread_time_slicing+0x54>

80002860 <_update_time_slice_before_swap>:
80002860:	800047b7          	lui	a5,0x80004
80002864:	8407a623          	sw	zero,-1972(a5) # 8000384c <CONFIG_OFFLOAD_WORKQUEUE_PRIORITY+0x8000384d>
80002868:	00008067          	ret

8000286c <_nano_sys_clock_tick_announce>:
8000286c:	fd010113          	addi	sp,sp,-48
80002870:	01412c23          	sw	s4,24(sp)
80002874:	02112623          	sw	ra,44(sp)
80002878:	02812423          	sw	s0,40(sp)
8000287c:	02912223          	sw	s1,36(sp)
80002880:	03212023          	sw	s2,32(sp)
80002884:	01312e23          	sw	s3,28(sp)
80002888:	01512a23          	sw	s5,20(sp)
8000288c:	01612823          	sw	s6,16(sp)
80002890:	00050a13          	mv	s4,a0
80002894:	00800693          	li	a3,8
80002898:	3006b7f3          	csrrc	a5,mstatus,a3
8000289c:	80004637          	lui	a2,0x80004
800028a0:	85062503          	lw	a0,-1968(a2) # 80003850 <CONFIG_OFFLOAD_WORKQUEUE_PRIORITY+0x80003851>
800028a4:	85462583          	lw	a1,-1964(a2)
800028a8:	41fa5713          	srai	a4,s4,0x1f
800028ac:	00aa0833          	add	a6,s4,a0
800028b0:	014838b3          	sltu	a7,a6,s4
800028b4:	00b70733          	add	a4,a4,a1
800028b8:	00e885b3          	add	a1,a7,a4
800028bc:	85062823          	sw	a6,-1968(a2)
800028c0:	84b62a23          	sw	a1,-1964(a2)
800028c4:	00d7f7b3          	and	a5,a5,a3
800028c8:	3007a7f3          	csrrs	a5,mstatus,a5
800028cc:	00d10633          	add	a2,sp,a3
800028d0:	00c12423          	sw	a2,8(sp)
800028d4:	00c12623          	sw	a2,12(sp)
800028d8:	3006b773          	csrrc	a4,mstatus,a3
800028dc:	800034b7          	lui	s1,0x80003
800028e0:	72848793          	addi	a5,s1,1832 # 80003728 <CONFIG_OFFLOAD_WORKQUEUE_PRIORITY+0x80003729>
800028e4:	00c7a783          	lw	a5,12(a5)
800028e8:	800035b7          	lui	a1,0x80003
800028ec:	73458593          	addi	a1,a1,1844 # 80003734 <CONFIG_OFFLOAD_WORKQUEUE_PRIORITY+0x80003735>
800028f0:	00d77733          	and	a4,a4,a3
800028f4:	72848493          	addi	s1,s1,1832
800028f8:	00b78463          	beq	a5,a1,80002900 <_nano_sys_clock_tick_announce+0x94>
800028fc:	06079e63          	bnez	a5,80002978 <_nano_sys_clock_tick_announce+0x10c>
80002900:	30072773          	csrrs	a4,mstatus,a4
80002904:	0084a503          	lw	a0,8(s1)
80002908:	ef5ff0ef          	jal	ra,800027fc <_is_thread_time_slicing>
8000290c:	04050263          	beqz	a0,80002950 <_nano_sys_clock_tick_announce+0xe4>
80002910:	00a00713          	li	a4,10
80002914:	02ea0733          	mul	a4,s4,a4
80002918:	800047b7          	lui	a5,0x80004
8000291c:	84c7aa03          	lw	s4,-1972(a5) # 8000384c <CONFIG_OFFLOAD_WORKQUEUE_PRIORITY+0x8000384d>
80002920:	00ea0a33          	add	s4,s4,a4
80002924:	80003737          	lui	a4,0x80003
80002928:	5c872703          	lw	a4,1480(a4) # 800035c8 <CONFIG_OFFLOAD_WORKQUEUE_PRIORITY+0x800035c9>
8000292c:	8547a623          	sw	s4,-1972(a5)
80002930:	02ea4063          	blt	s4,a4,80002950 <_nano_sys_clock_tick_announce+0xe4>
80002934:	8407a623          	sw	zero,-1972(a5)
80002938:	00800413          	li	s0,8
8000293c:	30043473          	csrrc	s0,mstatus,s0
80002940:	0084a503          	lw	a0,8(s1)
80002944:	00847413          	andi	s0,s0,8
80002948:	e11ff0ef          	jal	ra,80002758 <_move_thread_to_end_of_prio_q>
8000294c:	30042473          	csrrs	s0,mstatus,s0
80002950:	02c12083          	lw	ra,44(sp)
80002954:	02812403          	lw	s0,40(sp)
80002958:	02412483          	lw	s1,36(sp)
8000295c:	02012903          	lw	s2,32(sp)
80002960:	01c12983          	lw	s3,28(sp)
80002964:	01812a03          	lw	s4,24(sp)
80002968:	01412a83          	lw	s5,20(sp)
8000296c:	01012b03          	lw	s6,16(sp)
80002970:	03010113          	addi	sp,sp,48
80002974:	00008067          	ret
80002978:	0107a503          	lw	a0,16(a5)
8000297c:	800049b7          	lui	s3,0x80004
80002980:	ffe00813          	li	a6,-2
80002984:	41450533          	sub	a0,a0,s4
80002988:	00a7a823          	sw	a0,16(a5)
8000298c:	00100513          	li	a0,1
80002990:	84a9a423          	sw	a0,-1976(s3) # 80003848 <CONFIG_OFFLOAD_WORKQUEUE_PRIORITY+0x80003849>
80002994:	0107a503          	lw	a0,16(a5)
80002998:	04051663          	bnez	a0,800029e4 <_nano_sys_clock_tick_announce+0x178>
8000299c:	0007a883          	lw	a7,0(a5)
800029a0:	0047a503          	lw	a0,4(a5)
800029a4:	01152023          	sw	a7,0(a0)
800029a8:	0007a883          	lw	a7,0(a5)
800029ac:	00a8a223          	sw	a0,4(a7)
800029b0:	00812503          	lw	a0,8(sp)
800029b4:	00c7a223          	sw	a2,4(a5)
800029b8:	00a7a023          	sw	a0,0(a5)
800029bc:	00812503          	lw	a0,8(sp)
800029c0:	00f12423          	sw	a5,8(sp)
800029c4:	00f52223          	sw	a5,4(a0)
800029c8:	0107a823          	sw	a6,16(a5)
800029cc:	30072773          	csrrs	a4,mstatus,a4
800029d0:	3006b773          	csrrc	a4,mstatus,a3
800029d4:	00c4a783          	lw	a5,12(s1)
800029d8:	00877713          	andi	a4,a4,8
800029dc:	00b78463          	beq	a5,a1,800029e4 <_nano_sys_clock_tick_announce+0x178>
800029e0:	fa079ae3          	bnez	a5,80002994 <_nano_sys_clock_tick_announce+0x128>
800029e4:	30072773          	csrrs	a4,mstatus,a4
800029e8:	00812783          	lw	a5,8(sp)
800029ec:	00c79663          	bne	a5,a2,800029f8 <_nano_sys_clock_tick_announce+0x18c>
800029f0:	8409a423          	sw	zero,-1976(s3)
800029f4:	f11ff06f          	j	80002904 <_nano_sys_clock_tick_announce+0x98>
800029f8:	fe078ce3          	beqz	a5,800029f0 <_nano_sys_clock_tick_announce+0x184>
800029fc:	00c12703          	lw	a4,12(sp)
80002a00:	00000413          	li	s0,0
80002a04:	00e78463          	beq	a5,a4,80002a0c <_nano_sys_clock_tick_announce+0x1a0>
80002a08:	0007a403          	lw	s0,0(a5)
80002a0c:	00800b13          	li	s6,8
80002a10:	fff00a93          	li	s5,-1
80002a14:	0007a683          	lw	a3,0(a5)
80002a18:	0047a703          	lw	a4,4(a5)
80002a1c:	00d72023          	sw	a3,0(a4)
80002a20:	0007a683          	lw	a3,0(a5)
80002a24:	00e6a223          	sw	a4,4(a3)
80002a28:	0087a503          	lw	a0,8(a5)
80002a2c:	300b3973          	csrrc	s2,mstatus,s6
80002a30:	0157a823          	sw	s5,16(a5)
80002a34:	00897913          	andi	s2,s2,8
80002a38:	06050863          	beqz	a0,80002aa8 <_nano_sys_clock_tick_announce+0x23c>
80002a3c:	00c7a783          	lw	a5,12(a5)
80002a40:	02078463          	beqz	a5,80002a68 <_nano_sys_clock_tick_announce+0x1fc>
80002a44:	00452783          	lw	a5,4(a0)
80002a48:	00052703          	lw	a4,0(a0)
80002a4c:	00e7a023          	sw	a4,0(a5)
80002a50:	00052703          	lw	a4,0(a0)
80002a54:	00f72223          	sw	a5,4(a4)
80002a58:	00954783          	lbu	a5,9(a0)
80002a5c:	00052e23          	sw	zero,28(a0)
80002a60:	ffd7f793          	andi	a5,a5,-3
80002a64:	00f504a3          	sb	a5,9(a0)
80002a68:	00954783          	lbu	a5,9(a0)
80002a6c:	ffb7f713          	andi	a4,a5,-5
80002a70:	00e504a3          	sb	a4,9(a0)
80002a74:	01b7f793          	andi	a5,a5,27
80002a78:	00079663          	bnez	a5,80002a84 <_nano_sys_clock_tick_announce+0x218>
80002a7c:	02052783          	lw	a5,32(a0)
80002a80:	05578063          	beq	a5,s5,80002ac0 <_nano_sys_clock_tick_announce+0x254>
80002a84:	30092973          	csrrs	s2,mstatus,s2
80002a88:	f60404e3          	beqz	s0,800029f0 <_nano_sys_clock_tick_announce+0x184>
80002a8c:	00c12783          	lw	a5,12(sp)
80002a90:	00000713          	li	a4,0
80002a94:	00878463          	beq	a5,s0,80002a9c <_nano_sys_clock_tick_announce+0x230>
80002a98:	00042703          	lw	a4,0(s0)
80002a9c:	00040793          	mv	a5,s0
80002aa0:	00070413          	mv	s0,a4
80002aa4:	f71ff06f          	j	80002a14 <_nano_sys_clock_tick_announce+0x1a8>
80002aa8:	30092973          	csrrs	s2,mstatus,s2
80002aac:	0147a703          	lw	a4,20(a5)
80002ab0:	fc070ce3          	beqz	a4,80002a88 <_nano_sys_clock_tick_announce+0x21c>
80002ab4:	00078513          	mv	a0,a5
80002ab8:	000700e7          	jalr	a4
80002abc:	fcdff06f          	j	80002a88 <_nano_sys_clock_tick_announce+0x21c>
80002ac0:	aa5ff0ef          	jal	ra,80002564 <_add_thread_to_ready_q>
80002ac4:	fc1ff06f          	j	80002a84 <_nano_sys_clock_tick_announce+0x218>

80002ac8 <_is_thread_ready>:
80002ac8:	00954783          	lbu	a5,9(a0)
80002acc:	01f7f793          	andi	a5,a5,31
80002ad0:	00079a63          	bnez	a5,80002ae4 <_is_thread_ready+0x1c>
80002ad4:	02052503          	lw	a0,32(a0)
80002ad8:	00150513          	addi	a0,a0,1
80002adc:	00153513          	seqz	a0,a0
80002ae0:	00008067          	ret
80002ae4:	00000513          	li	a0,0
80002ae8:	00008067          	ret

80002aec <start_thread>:
80002aec:	ff010113          	addi	sp,sp,-16
80002af0:	00812423          	sw	s0,8(sp)
80002af4:	00912223          	sw	s1,4(sp)
80002af8:	00112623          	sw	ra,12(sp)
80002afc:	00050493          	mv	s1,a0
80002b00:	00800413          	li	s0,8
80002b04:	30043473          	csrrc	s0,mstatus,s0
80002b08:	00954783          	lbu	a5,9(a0)
80002b0c:	00847413          	andi	s0,s0,8
80002b10:	ffb7f793          	andi	a5,a5,-5
80002b14:	00f504a3          	sb	a5,9(a0)
80002b18:	fb1ff0ef          	jal	ra,80002ac8 <_is_thread_ready>
80002b1c:	00051e63          	bnez	a0,80002b38 <start_thread+0x4c>
80002b20:	30042473          	csrrs	s0,mstatus,s0
80002b24:	00c12083          	lw	ra,12(sp)
80002b28:	00812403          	lw	s0,8(sp)
80002b2c:	00412483          	lw	s1,4(sp)
80002b30:	01010113          	addi	sp,sp,16
80002b34:	00008067          	ret
80002b38:	00048513          	mv	a0,s1
80002b3c:	a29ff0ef          	jal	ra,80002564 <_add_thread_to_ready_q>
80002b40:	800037b7          	lui	a5,0x80003
80002b44:	7307a783          	lw	a5,1840(a5) # 80003730 <CONFIG_OFFLOAD_WORKQUEUE_PRIORITY+0x80003731>
80002b48:	00a7d703          	lhu	a4,10(a5)
80002b4c:	07f00793          	li	a5,127
80002b50:	fce7e8e3          	bltu	a5,a4,80002b20 <start_thread+0x34>
80002b54:	b41ff0ef          	jal	ra,80002694 <__must_switch_threads>
80002b58:	fc0504e3          	beqz	a0,80002b20 <start_thread+0x34>
80002b5c:	d05ff0ef          	jal	ra,80002860 <_update_time_slice_before_swap>
80002b60:	00040513          	mv	a0,s0
80002b64:	00c12083          	lw	ra,12(sp)
80002b68:	00812403          	lw	s0,8(sp)
80002b6c:	00412483          	lw	s1,4(sp)
80002b70:	01010113          	addi	sp,sp,16
80002b74:	ffffd317          	auipc	t1,0xffffd
80002b78:	6f830067          	jr	1784(t1) # 8000026c <__swap>

80002b7c <_abort_timeout>:
80002b7c:	01052783          	lw	a5,16(a0)
80002b80:	fff00713          	li	a4,-1
80002b84:	04e78263          	beq	a5,a4,80002bc8 <_abort_timeout+0x4c>
80002b88:	80003737          	lui	a4,0x80003
80002b8c:	73872703          	lw	a4,1848(a4) # 80003738 <CONFIG_OFFLOAD_WORKQUEUE_PRIORITY+0x80003739>
80002b90:	00e50a63          	beq	a0,a4,80002ba4 <_abort_timeout+0x28>
80002b94:	00052683          	lw	a3,0(a0)
80002b98:	0106a703          	lw	a4,16(a3)
80002b9c:	00f707b3          	add	a5,a4,a5
80002ba0:	00f6a823          	sw	a5,16(a3)
80002ba4:	00452783          	lw	a5,4(a0)
80002ba8:	00052703          	lw	a4,0(a0)
80002bac:	00e7a023          	sw	a4,0(a5)
80002bb0:	00052703          	lw	a4,0(a0)
80002bb4:	00f72223          	sw	a5,4(a4)
80002bb8:	fff00793          	li	a5,-1
80002bbc:	00f52823          	sw	a5,16(a0)
80002bc0:	00000513          	li	a0,0
80002bc4:	00008067          	ret
80002bc8:	00078513          	mv	a0,a5
80002bcc:	00008067          	ret

80002bd0 <schedule_new_thread.part.14>:
80002bd0:	00800713          	li	a4,8
80002bd4:	30073773          	csrrc	a4,mstatus,a4
80002bd8:	00a00793          	li	a5,10
80002bdc:	00958593          	addi	a1,a1,9
80002be0:	02f5d5b3          	divu	a1,a1,a5
80002be4:	800036b7          	lui	a3,0x80003
80002be8:	72868793          	addi	a5,a3,1832 # 80003728 <CONFIG_OFFLOAD_WORKQUEUE_PRIORITY+0x80003729>
80002bec:	00c7a783          	lw	a5,12(a5)
80002bf0:	800038b7          	lui	a7,0x80003
80002bf4:	00a52c23          	sw	a0,24(a0)
80002bf8:	00052e23          	sw	zero,28(a0)
80002bfc:	73488893          	addi	a7,a7,1844 # 80003734 <CONFIG_OFFLOAD_WORKQUEUE_PRIORITY+0x80003735>
80002c00:	00877713          	andi	a4,a4,8
80002c04:	01050813          	addi	a6,a0,16
80002c08:	72868693          	addi	a3,a3,1832
80002c0c:	00158593          	addi	a1,a1,1
80002c10:	02b52023          	sw	a1,32(a0)
80002c14:	03179063          	bne	a5,a7,80002c34 <schedule_new_thread.part.14+0x64>
80002c18:	01152823          	sw	a7,16(a0)
80002c1c:	0106a783          	lw	a5,16(a3)
80002c20:	00f52a23          	sw	a5,20(a0)
80002c24:	0107a023          	sw	a6,0(a5)
80002c28:	0106a823          	sw	a6,16(a3)
80002c2c:	30072773          	csrrs	a4,mstatus,a4
80002c30:	00008067          	ret
80002c34:	fe0782e3          	beqz	a5,80002c18 <schedule_new_thread.part.14+0x48>
80002c38:	0106a303          	lw	t1,16(a3)
80002c3c:	02052603          	lw	a2,32(a0)
80002c40:	0107a583          	lw	a1,16(a5)
80002c44:	02c5c463          	blt	a1,a2,80002c6c <schedule_new_thread.part.14+0x9c>
80002c48:	0047a683          	lw	a3,4(a5)
80002c4c:	40c58633          	sub	a2,a1,a2
80002c50:	00c7a823          	sw	a2,16(a5)
80002c54:	00d52a23          	sw	a3,20(a0)
80002c58:	00f52823          	sw	a5,16(a0)
80002c5c:	0047a683          	lw	a3,4(a5)
80002c60:	0106a023          	sw	a6,0(a3)
80002c64:	0107a223          	sw	a6,4(a5)
80002c68:	fc5ff06f          	j	80002c2c <schedule_new_thread.part.14+0x5c>
80002c6c:	40b60633          	sub	a2,a2,a1
80002c70:	02c52023          	sw	a2,32(a0)
80002c74:	fa6782e3          	beq	a5,t1,80002c18 <schedule_new_thread.part.14+0x48>
80002c78:	0007a783          	lw	a5,0(a5)
80002c7c:	fc0790e3          	bnez	a5,80002c3c <schedule_new_thread.part.14+0x6c>
80002c80:	f99ff06f          	j	80002c18 <schedule_new_thread.part.14+0x48>

80002c84 <k_is_in_isr>:
80002c84:	800037b7          	lui	a5,0x80003
80002c88:	7287a503          	lw	a0,1832(a5) # 80003728 <CONFIG_OFFLOAD_WORKQUEUE_PRIORITY+0x80003729>
80002c8c:	00a03533          	snez	a0,a0
80002c90:	00008067          	ret

80002c94 <_is_thread_essential>:
80002c94:	800037b7          	lui	a5,0x80003
80002c98:	7307a783          	lw	a5,1840(a5) # 80003730 <CONFIG_OFFLOAD_WORKQUEUE_PRIORITY+0x80003731>
80002c9c:	0087c503          	lbu	a0,8(a5)
80002ca0:	00157513          	andi	a0,a0,1
80002ca4:	00008067          	ret

80002ca8 <_thread_entry>:
80002ca8:	ff010113          	addi	sp,sp,-16
80002cac:	00112623          	sw	ra,12(sp)
80002cb0:	00050793          	mv	a5,a0
80002cb4:	00058513          	mv	a0,a1
80002cb8:	00060593          	mv	a1,a2
80002cbc:	00068613          	mv	a2,a3
80002cc0:	000780e7          	jalr	a5
80002cc4:	fd1ff0ef          	jal	ra,80002c94 <_is_thread_essential>
80002cc8:	02050663          	beqz	a0,80002cf4 <_thread_entry+0x4c>
80002ccc:	800035b7          	lui	a1,0x80003
80002cd0:	80003537          	lui	a0,0x80003
80002cd4:	4e458593          	addi	a1,a1,1252 # 800034e4 <CONFIG_OFFLOAD_WORKQUEUE_PRIORITY+0x800034e5>
80002cd8:	0c100613          	li	a2,193
80002cdc:	51c50513          	addi	a0,a0,1308 # 8000351c <CONFIG_OFFLOAD_WORKQUEUE_PRIORITY+0x8000351d>
80002ce0:	9bcff0ef          	jal	ra,80001e9c <printk>
80002ce4:	800035b7          	lui	a1,0x80003
80002ce8:	3a458593          	addi	a1,a1,932 # 800033a4 <CONFIG_OFFLOAD_WORKQUEUE_PRIORITY+0x800033a5>
80002cec:	00100513          	li	a0,1
80002cf0:	aecff0ef          	jal	ra,80001fdc <_NanoFatalErrorHandler>
80002cf4:	800037b7          	lui	a5,0x80003
80002cf8:	7307a503          	lw	a0,1840(a5) # 80003730 <CONFIG_OFFLOAD_WORKQUEUE_PRIORITY+0x80003731>
80002cfc:	198000ef          	jal	ra,80002e94 <k_thread_abort>

80002d00 <_k_thread_single_abort>:
80002d00:	06052783          	lw	a5,96(a0)
80002d04:	ff010113          	addi	sp,sp,-16
80002d08:	00812423          	sw	s0,8(sp)
80002d0c:	00112623          	sw	ra,12(sp)
80002d10:	00050413          	mv	s0,a0
80002d14:	00078463          	beqz	a5,80002d1c <_k_thread_single_abort+0x1c>
80002d18:	000780e7          	jalr	a5
80002d1c:	00040513          	mv	a0,s0
80002d20:	da9ff0ef          	jal	ra,80002ac8 <_is_thread_ready>
80002d24:	02050463          	beqz	a0,80002d4c <_k_thread_single_abort+0x4c>
80002d28:	00040513          	mv	a0,s0
80002d2c:	8b9ff0ef          	jal	ra,800025e4 <_remove_thread_from_ready_q>
80002d30:	00944783          	lbu	a5,9(s0)
80002d34:	0087e793          	ori	a5,a5,8
80002d38:	00f404a3          	sb	a5,9(s0)
80002d3c:	00c12083          	lw	ra,12(sp)
80002d40:	00812403          	lw	s0,8(sp)
80002d44:	01010113          	addi	sp,sp,16
80002d48:	00008067          	ret
80002d4c:	00944783          	lbu	a5,9(s0)
80002d50:	0027f793          	andi	a5,a5,2
80002d54:	02078263          	beqz	a5,80002d78 <_k_thread_single_abort+0x78>
80002d58:	00442783          	lw	a5,4(s0)
80002d5c:	00042703          	lw	a4,0(s0)
80002d60:	00e7a023          	sw	a4,0(a5)
80002d64:	00042703          	lw	a4,0(s0)
80002d68:	00f72223          	sw	a5,4(a4)
80002d6c:	00944783          	lbu	a5,9(s0)
80002d70:	ffd7f793          	andi	a5,a5,-3
80002d74:	00f404a3          	sb	a5,9(s0)
80002d78:	02042703          	lw	a4,32(s0)
80002d7c:	fff00793          	li	a5,-1
80002d80:	faf708e3          	beq	a4,a5,80002d30 <_k_thread_single_abort+0x30>
80002d84:	01040513          	addi	a0,s0,16
80002d88:	df5ff0ef          	jal	ra,80002b7c <_abort_timeout>
80002d8c:	fa5ff06f          	j	80002d30 <_k_thread_single_abort+0x30>

80002d90 <_init_static_threads>:
80002d90:	fd010113          	addi	sp,sp,-48
80002d94:	800037b7          	lui	a5,0x80003
80002d98:	01312e23          	sw	s3,28(sp)
80002d9c:	800039b7          	lui	s3,0x80003
80002da0:	02812423          	sw	s0,40(sp)
80002da4:	03212023          	sw	s2,32(sp)
80002da8:	02112623          	sw	ra,44(sp)
80002dac:	02912223          	sw	s1,36(sp)
80002db0:	5b078413          	addi	s0,a5,1456 # 800035b0 <CONFIG_OFFLOAD_WORKQUEUE_PRIORITY+0x800035b1>
80002db4:	5b078913          	addi	s2,a5,1456
80002db8:	5b098993          	addi	s3,s3,1456 # 800035b0 <CONFIG_OFFLOAD_WORKQUEUE_PRIORITY+0x800035b1>
80002dbc:	05346863          	bltu	s0,s3,80002e0c <_init_static_threads+0x7c>
80002dc0:	800037b7          	lui	a5,0x80003
80002dc4:	7307a703          	lw	a4,1840(a5) # 80003730 <CONFIG_OFFLOAD_WORKQUEUE_PRIORITY+0x80003731>
80002dc8:	00b74783          	lbu	a5,11(a4)
80002dcc:	fff78793          	addi	a5,a5,-1
80002dd0:	00f705a3          	sb	a5,11(a4)
80002dd4:	00800493          	li	s1,8
80002dd8:	3004b4f3          	csrrc	s1,mstatus,s1
80002ddc:	00090413          	mv	s0,s2
80002de0:	0084f493          	andi	s1,s1,8
80002de4:	fff00913          	li	s2,-1
80002de8:	07346063          	bltu	s0,s3,80002e48 <_init_static_threads+0xb8>
80002dec:	3004a4f3          	csrrs	s1,mstatus,s1
80002df0:	02c12083          	lw	ra,44(sp)
80002df4:	02812403          	lw	s0,40(sp)
80002df8:	02412483          	lw	s1,36(sp)
80002dfc:	02012903          	lw	s2,32(sp)
80002e00:	01c12983          	lw	s3,28(sp)
80002e04:	03010113          	addi	sp,sp,48
80002e08:	92dff06f          	j	80002734 <k_sched_unlock>
80002e0c:	02042303          	lw	t1,32(s0)
80002e10:	01442783          	lw	a5,20(s0)
80002e14:	01c42883          	lw	a7,28(s0)
80002e18:	01842803          	lw	a6,24(s0)
80002e1c:	01042703          	lw	a4,16(s0)
80002e20:	00c42683          	lw	a3,12(s0)
80002e24:	00842603          	lw	a2,8(s0)
80002e28:	00442583          	lw	a1,4(s0)
80002e2c:	00042503          	lw	a0,0(s0)
80002e30:	00612023          	sw	t1,0(sp)
80002e34:	bd8ff0ef          	jal	ra,8000220c <_new_thread>
80002e38:	00042783          	lw	a5,0(s0)
80002e3c:	0487ae23          	sw	s0,92(a5)
80002e40:	03040413          	addi	s0,s0,48
80002e44:	f79ff06f          	j	80002dbc <_init_static_threads+0x2c>
80002e48:	02442583          	lw	a1,36(s0)
80002e4c:	01258863          	beq	a1,s2,80002e5c <_init_static_threads+0xcc>
80002e50:	00042503          	lw	a0,0(s0)
80002e54:	00059863          	bnez	a1,80002e64 <_init_static_threads+0xd4>
80002e58:	c95ff0ef          	jal	ra,80002aec <start_thread>
80002e5c:	03040413          	addi	s0,s0,48
80002e60:	f89ff06f          	j	80002de8 <_init_static_threads+0x58>
80002e64:	d6dff0ef          	jal	ra,80002bd0 <schedule_new_thread.part.14>
80002e68:	ff5ff06f          	j	80002e5c <_init_static_threads+0xcc>

80002e6c <_init_thread_base>:
80002e6c:	fff00793          	li	a5,-1
80002e70:	00d50423          	sb	a3,8(a0)
80002e74:	00c504a3          	sb	a2,9(a0)
80002e78:	00b50523          	sb	a1,10(a0)
80002e7c:	000505a3          	sb	zero,11(a0)
80002e80:	02f52023          	sw	a5,32(a0)
80002e84:	00052e23          	sw	zero,28(a0)
80002e88:	00052c23          	sw	zero,24(a0)
80002e8c:	02052223          	sw	zero,36(a0)
80002e90:	00008067          	ret

80002e94 <k_thread_abort>:
80002e94:	ff010113          	addi	sp,sp,-16
80002e98:	00812423          	sw	s0,8(sp)
80002e9c:	00912223          	sw	s1,4(sp)
80002ea0:	00112623          	sw	ra,12(sp)
80002ea4:	00050493          	mv	s1,a0
80002ea8:	00800413          	li	s0,8
80002eac:	30043473          	csrrc	s0,mstatus,s0
80002eb0:	e51ff0ef          	jal	ra,80002d00 <_k_thread_single_abort>
80002eb4:	800037b7          	lui	a5,0x80003
80002eb8:	7307a783          	lw	a5,1840(a5) # 80003730 <CONFIG_OFFLOAD_WORKQUEUE_PRIORITY+0x80003731>
80002ebc:	00847413          	andi	s0,s0,8
80002ec0:	00f49a63          	bne	s1,a5,80002ed4 <k_thread_abort+0x40>
80002ec4:	99dff0ef          	jal	ra,80002860 <_update_time_slice_before_swap>
80002ec8:	00040513          	mv	a0,s0
80002ecc:	ffffd317          	auipc	t1,0xffffd
80002ed0:	3a0300e7          	jalr	928(t1) # 8000026c <__swap>
80002ed4:	00040513          	mv	a0,s0
80002ed8:	00c12083          	lw	ra,12(sp)
80002edc:	00812403          	lw	s0,8(sp)
80002ee0:	00412483          	lw	s1,4(sp)
80002ee4:	01010113          	addi	sp,sp,16
80002ee8:	fe8ff06f          	j	800026d0 <_reschedule_threads>

80002eec <idle>:
80002eec:	ff010113          	addi	sp,sp,-16
80002ef0:	00812423          	sw	s0,8(sp)
80002ef4:	00112623          	sw	ra,12(sp)
80002ef8:	00800413          	li	s0,8
80002efc:	300437f3          	csrrc	a5,mstatus,s0
80002f00:	fddfe0ef          	jal	ra,80001edc <k_cpu_idle>
80002f04:	ff9ff06f          	j	80002efc <idle+0x10>

80002f08 <_OffsetAbsSyms>:
80002f08:	00008067          	ret
